	.section	__TEXT,__text,regular,pure_instructions
	.macosx_version_min 10, 13
	.file	1 "/Applications/Xcode.app/Contents/Developer/Toolchains/XcodeDefault.xctoolchain/usr/include/c++/v1" "ios"
	.file	2 "/Applications/Xcode.app/Contents/Developer/Toolchains/XcodeDefault.xctoolchain/usr/lib/clang/9.1.0/include" "stddef.h"
	.file	3 "/usr/include/i386" "_types.h"
	.file	4 "/usr/include/sys/_types" "_size_t.h"
	.file	5 "/Applications/Xcode.app/Contents/Developer/Toolchains/XcodeDefault.xctoolchain/usr/include/c++/v1" "__locale"
	.file	6 "/Applications/Xcode.app/Contents/Developer/Toolchains/XcodeDefault.xctoolchain/usr/include/c++/v1" "string"
	.file	7 "/Applications/Xcode.app/Contents/Developer/Toolchains/XcodeDefault.xctoolchain/usr/include/c++/v1" "memory"
	.file	8 "/Applications/Xcode.app/Contents/Developer/Toolchains/XcodeDefault.xctoolchain/usr/include/c++/v1" "type_traits"
	.file	9 "/Applications/Xcode.app/Contents/Developer/Toolchains/XcodeDefault.xctoolchain/usr/include/c++/v1" "string_view"
	.file	10 "/Applications/Xcode.app/Contents/Developer/Toolchains/XcodeDefault.xctoolchain/usr/include/c++/v1" "__string"
	.file	11 "/Applications/Xcode.app/Contents/Developer/Toolchains/XcodeDefault.xctoolchain/usr/include/c++/v1" "iosfwd"
	.file	12 "/Applications/Xcode.app/Contents/Developer/Toolchains/XcodeDefault.xctoolchain/usr/include/c++/v1" "mutex"
	.file	13 "/usr/include/sys/_types" "_int32_t.h"
	.file	14 "/Applications/Xcode.app/Contents/Developer/Toolchains/XcodeDefault.xctoolchain/usr/include/c++/v1" "iterator"
	.file	15 "/Applications/Xcode.app/Contents/Developer/Toolchains/XcodeDefault.xctoolchain/usr/include/c++/v1" "streambuf"
	.file	16 "/Applications/Xcode.app/Contents/Developer/Toolchains/XcodeDefault.xctoolchain/usr/include/c++/v1" "ostream"
	.file	17 "/Applications/Xcode.app/Contents/Developer/Toolchains/XcodeDefault.xctoolchain/usr/include/c++/v1" "__nullptr"
	.file	18 "/Applications/Xcode.app/Contents/Developer/Toolchains/XcodeDefault.xctoolchain/usr/include/c++/v1" "cstddef"
	.file	19 "/Applications/Xcode.app/Contents/Developer/Toolchains/XcodeDefault.xctoolchain/usr/include/c++/v1" "cstring"
	.file	20 "/usr/include" "string.h"
	.file	21 "/Applications/Xcode.app/Contents/Developer/Toolchains/XcodeDefault.xctoolchain/usr/include/c++/v1" "string.h"
	.file	22 "/usr/include/sys/_types" "_int8_t.h"
	.file	23 "/Applications/Xcode.app/Contents/Developer/Toolchains/XcodeDefault.xctoolchain/usr/include/c++/v1" "cstdint"
	.file	24 "/usr/include/sys/_types" "_int16_t.h"
	.file	25 "/usr/include/sys/_types" "_int64_t.h"
	.file	26 "/usr/include/_types" "_uint8_t.h"
	.file	27 "/usr/include/_types" "_uint16_t.h"
	.file	28 "/usr/include/_types" "_uint32_t.h"
	.file	29 "/usr/include/_types" "_uint64_t.h"
	.file	30 "/usr/include" "stdint.h"
	.file	31 "/usr/include/sys/_types" "_intptr_t.h"
	.file	32 "/usr/include/sys/_types" "_uintptr_t.h"
	.file	33 "/usr/include/_types" "_intmax_t.h"
	.file	34 "/usr/include/_types" "_uintmax_t.h"
	.file	35 "/Applications/Xcode.app/Contents/Developer/Toolchains/XcodeDefault.xctoolchain/usr/include/c++/v1" "cstdlib"
	.file	36 "/usr/include" "stdlib.h"
	.file	37 "/Applications/Xcode.app/Contents/Developer/Toolchains/XcodeDefault.xctoolchain/usr/include/c++/v1" "stdlib.h"
	.file	38 "/usr/include" "_stdio.h"
	.file	39 "/usr/include/sys" "_types.h"
	.file	40 "/Applications/Xcode.app/Contents/Developer/Toolchains/XcodeDefault.xctoolchain/usr/include/c++/v1" "cstdio"
	.file	41 "/usr/include" "stdio.h"
	.file	42 "/usr/include/sys/_types" "_va_list.h"
	.file	43 "/usr/include" "_ctype.h"
	.file	44 "/Applications/Xcode.app/Contents/Developer/Toolchains/XcodeDefault.xctoolchain/usr/include/c++/v1" "cctype"
	.file	45 "/usr/include/sys/_types" "_wint_t.h"
	.file	46 "/Applications/Xcode.app/Contents/Developer/Toolchains/XcodeDefault.xctoolchain/usr/include/c++/v1" "cwctype"
	.file	47 "/usr/include" "_types.h"
	.file	48 "/usr/include/_types" "_wctrans_t.h"
	.file	49 "/usr/include/_types" "_wctype_t.h"
	.file	50 "/usr/include" "_wctype.h"
	.file	51 "/usr/include" "wctype.h"
	.file	52 "/usr/include/sys/_types" "_mbstate_t.h"
	.file	53 "/Applications/Xcode.app/Contents/Developer/Toolchains/XcodeDefault.xctoolchain/usr/include/c++/v1" "cwchar"
	.file	54 "/usr/include" "time.h"
	.file	55 "/usr/include" "wchar.h"
	.file	56 "/Applications/Xcode.app/Contents/Developer/Toolchains/XcodeDefault.xctoolchain/usr/include/c++/v1" "wchar.h"
	.file	57 "/usr/include/sys/_types" "_clock_t.h"
	.file	58 "/Applications/Xcode.app/Contents/Developer/Toolchains/XcodeDefault.xctoolchain/usr/include/c++/v1" "ctime"
	.file	59 "/usr/include/sys/_types" "_time_t.h"
	.globl	_main                   ## -- Begin function main
	.p2align	4, 0x90
_main:                                  ## @main
Lfunc_begin0:
	.file	60 "main.cpp"
	.loc	60 40 0                 ## main.cpp:40:0
	.cfi_startproc
	.cfi_personality 155, L___gxx_personality_v0$non_lazy_ptr
	.cfi_lsda 16, Lexception0
## BB#0:
	pushl	%ebp
Lcfi0:
	.cfi_def_cfa_offset 8
Lcfi1:
	.cfi_offset %ebp, -8
	movl	%esp, %ebp
Lcfi2:
	.cfi_def_cfa_register %ebp
	pushl	%esi
	subl	$68, %esp
Lcfi3:
	.cfi_offset %esi, -12
	movl	$0, -8(%ebp)
Ltmp18:
	.loc	60 41 13 prologue_end   ## main.cpp:41:13
	movl	%esp, %eax
	leal	-16(%ebp), %ecx
	movl	%ecx, (%eax)
	movl	%ecx, -36(%ebp)         ## 4-byte Spill
	calll	__ZN7DerivedC1Ev
Ltmp0:
	.loc	60 43 7                 ## main.cpp:43:7
	movl	%esp, %eax
	movl	-36(%ebp), %ecx         ## 4-byte Reload
	movl	%ecx, (%eax)
	calll	__ZN7Derived16show_base_attribEv
Ltmp1:
	jmp	LBB0_1
LBB0_1:
Ltmp2:
	.loc	60 44 7                 ## main.cpp:44:7
	movl	%esp, %eax
	leal	-16(%ebp), %ecx
	movl	%ecx, (%eax)
	calll	__ZN7Derived8do_stuffEv
Ltmp3:
	jmp	LBB0_2
LBB0_2:
Ltmp4:
	.loc	60 46 19                ## main.cpp:46:19
	movl	%esp, %eax
	movl	$8, (%eax)
	calll	__Znwm
Ltmp5:
	movl	%eax, -40(%ebp)         ## 4-byte Spill
	jmp	LBB0_3
LBB0_3:
	.loc	60 46 23 is_stmt 0      ## main.cpp:46:23
	movl	%esp, %eax
	movl	-40(%ebp), %ecx         ## 4-byte Reload
	movl	%ecx, (%eax)
	calll	__ZN7DerivedC1Ev
	.loc	60 46 11                ## main.cpp:46:11
	movl	-40(%ebp), %eax         ## 4-byte Reload
	movl	%eax, -28(%ebp)
	.loc	60 47 5 is_stmt 1       ## main.cpp:47:5
	movl	-28(%ebp), %ecx
	.loc	60 47 12 is_stmt 0      ## main.cpp:47:12
	movl	(%ecx), %edx
	movl	8(%edx), %edx
Ltmp6:
	movl	%esp, %esi
	movl	%ecx, (%esi)
	calll	*%edx
Ltmp7:
	jmp	LBB0_4
LBB0_4:
	.loc	60 48 5 is_stmt 1       ## main.cpp:48:5
	movl	-28(%ebp), %eax
	.loc	60 48 12 is_stmt 0      ## main.cpp:48:12
	movl	(%eax), %ecx
	movl	12(%ecx), %ecx
Ltmp8:
	movl	%esp, %edx
	movl	%eax, (%edx)
	calll	*%ecx
Ltmp9:
	jmp	LBB0_5
LBB0_5:
	.loc	60 49 12 is_stmt 1      ## main.cpp:49:12
	movl	-28(%ebp), %eax
	.loc	60 49 5 is_stmt 0       ## main.cpp:49:5
	cmpl	$0, %eax
	movl	%eax, -44(%ebp)         ## 4-byte Spill
	je	LBB0_8
## BB#6:
	movl	-44(%ebp), %eax         ## 4-byte Reload
	movl	(%eax), %ecx
	movl	4(%ecx), %ecx
Ltmp10:
	movl	%esp, %edx
	movl	%eax, (%edx)
	calll	*%ecx
Ltmp11:
	jmp	LBB0_7
LBB0_7:
	jmp	LBB0_8
LBB0_8:
Ltmp12:
	.loc	60 52 15 is_stmt 1      ## main.cpp:52:15
	movl	%esp, %eax
	movl	$4, (%eax)
	calll	__Znwm
Ltmp13:
	movl	%eax, -48(%ebp)         ## 4-byte Spill
	jmp	LBB0_9
LBB0_9:
	movl	-48(%ebp), %eax         ## 4-byte Reload
	.loc	60 52 11 is_stmt 0      ## main.cpp:52:11
	movl	%eax, -32(%ebp)
	.loc	60 54 12 is_stmt 1      ## main.cpp:54:12
	movl	-32(%ebp), %eax
	.loc	60 54 5 is_stmt 0       ## main.cpp:54:5
	cmpl	$0, %eax
	movl	%eax, -52(%ebp)         ## 4-byte Spill
	je	LBB0_11
## BB#10:
	movl	-52(%ebp), %eax         ## 4-byte Reload
	movl	%eax, (%esp)
	calll	__ZdlPv
LBB0_11:
	.loc	60 0 5                  ## main.cpp:0:5
	leal	-16(%ebp), %eax
	.loc	60 55 1 is_stmt 1       ## main.cpp:55:1
	movl	%eax, (%esp)
	calll	__ZN7DerivedD1Ev
	movl	-8(%ebp), %eax
	addl	$68, %esp
	popl	%esi
	popl	%ebp
	retl
LBB0_12:
Ltmp14:
	movl	%eax, -20(%ebp)
	movl	%edx, -24(%ebp)
Ltmp15:
	movl	%esp, %eax
	leal	-16(%ebp), %edx
	movl	%edx, (%eax)
	calll	__ZN7DerivedD1Ev
Ltmp16:
	jmp	LBB0_13
LBB0_13:
	jmp	LBB0_14
LBB0_14:
	movl	-20(%ebp), %eax
	movl	%eax, (%esp)
	calll	__Unwind_Resume
LBB0_15:
Ltmp17:
	movl	%eax, (%esp)
	movl	%edx, -56(%ebp)         ## 4-byte Spill
	calll	___clang_call_terminate
Ltmp19:
Lfunc_end0:
	.cfi_endproc
	.section	__TEXT,__gcc_except_tab
	.p2align	2
GCC_except_table0:
Lexception0:
	.byte	255                     ## @LPStart Encoding = omit
	.byte	155                     ## @TType Encoding = indirect pcrel sdata4
	.asciz	"\274"                  ## @TType base offset
	.byte	3                       ## Call site Encoding = udata4
	.byte	52                      ## Call site table length
Lset0 = Ltmp0-Lfunc_begin0              ## >> Call Site 1 <<
	.long	Lset0
Lset1 = Ltmp13-Ltmp0                    ##   Call between Ltmp0 and Ltmp13
	.long	Lset1
Lset2 = Ltmp14-Lfunc_begin0             ##     jumps to Ltmp14
	.long	Lset2
	.byte	0                       ##   On action: cleanup
Lset3 = Ltmp13-Lfunc_begin0             ## >> Call Site 2 <<
	.long	Lset3
Lset4 = Ltmp15-Ltmp13                   ##   Call between Ltmp13 and Ltmp15
	.long	Lset4
	.long	0                       ##     has no landing pad
	.byte	0                       ##   On action: cleanup
Lset5 = Ltmp15-Lfunc_begin0             ## >> Call Site 3 <<
	.long	Lset5
Lset6 = Ltmp16-Ltmp15                   ##   Call between Ltmp15 and Ltmp16
	.long	Lset6
Lset7 = Ltmp17-Lfunc_begin0             ##     jumps to Ltmp17
	.long	Lset7
	.byte	1                       ##   On action: 1
Lset8 = Ltmp16-Lfunc_begin0             ## >> Call Site 4 <<
	.long	Lset8
Lset9 = Lfunc_end0-Ltmp16               ##   Call between Ltmp16 and Lfunc_end0
	.long	Lset9
	.long	0                       ##     has no landing pad
	.byte	0                       ##   On action: cleanup
	.byte	1                       ## >> Action Record 1 <<
                                        ##   Catch TypeInfo 1
	.byte	0                       ##   No further actions
                                        ## >> Catch TypeInfos <<
	.long	0                       ## TypeInfo 1
	.p2align	2
                                        ## -- End function
	.section	__TEXT,__text,regular,pure_instructions
	.globl	__ZN7DerivedC1Ev        ## -- Begin function _ZN7DerivedC1Ev
	.weak_def_can_be_hidden	__ZN7DerivedC1Ev
	.p2align	4, 0x90
__ZN7DerivedC1Ev:                       ## @_ZN7DerivedC1Ev
Lfunc_begin1:
	.loc	60 20 0                 ## main.cpp:20:0
	.cfi_startproc
## BB#0:
	pushl	%ebp
Lcfi4:
	.cfi_def_cfa_offset 8
Lcfi5:
	.cfi_offset %ebp, -8
	movl	%esp, %ebp
Lcfi6:
	.cfi_def_cfa_register %ebp
	subl	$8, %esp
	movl	8(%ebp), %eax
	movl	8(%ebp), %ecx
Ltmp20:
	.loc	60 20 7 prologue_end    ## main.cpp:20:7
	movl	%ecx, (%esp)
	movl	%eax, -4(%ebp)          ## 4-byte Spill
	calll	__ZN7DerivedC2Ev
	addl	$8, %esp
	popl	%ebp
	retl
Ltmp21:
Lfunc_end1:
	.cfi_endproc
                                        ## -- End function
	.globl	__ZN7Derived16show_base_attribEv ## -- Begin function _ZN7Derived16show_base_attribEv
	.weak_definition	__ZN7Derived16show_base_attribEv
	.p2align	4, 0x90
__ZN7Derived16show_base_attribEv:       ## @_ZN7Derived16show_base_attribEv
Lfunc_begin2:
	.loc	60 22 0                 ## main.cpp:22:0
	.cfi_startproc
## BB#0:
	pushl	%ebp
Lcfi7:
	.cfi_def_cfa_offset 8
Lcfi8:
	.cfi_offset %ebp, -8
	movl	%esp, %ebp
Lcfi9:
	.cfi_def_cfa_register %ebp
	pushl	%edi
	pushl	%esi
	subl	$48, %esp
Lcfi10:
	.cfi_offset %esi, -16
Lcfi11:
	.cfi_offset %edi, -12
	calll	L2$pb
L2$pb:
	popl	%eax
	movl	8(%ebp), %ecx
	movl	$8, %edx
	movl	8(%ebp), %esi
Ltmp22:
	.loc	60 27 9 prologue_end    ## main.cpp:27:9
	movl	%esi, %edi
	movl	%edi, (%esp)
	movl	$8, 4(%esp)
	movl	%eax, -20(%ebp)         ## 4-byte Spill
	movl	%ecx, -24(%ebp)         ## 4-byte Spill
	movl	%edx, -28(%ebp)         ## 4-byte Spill
	movl	%esi, -32(%ebp)         ## 4-byte Spill
	calll	__ZN4Base16setPrivateAttribEi
	movl	-20(%ebp), %eax         ## 4-byte Reload
	movl	L__ZNSt3__14coutE$non_lazy_ptr-L2$pb(%eax), %ecx
	leal	L_.str.4-L2$pb(%eax), %edx
	.loc	60 28 19                ## main.cpp:28:19
	movl	%ecx, (%esp)
	movl	%edx, 4(%esp)
	calll	__ZNSt3__1lsINS_11char_traitsIcEEEERNS_13basic_ostreamIcT_EES6_PKc
	.loc	60 28 54 is_stmt 0      ## main.cpp:28:54
	movl	-32(%ebp), %ecx         ## 4-byte Reload
	movl	%ecx, (%esp)
	movl	%eax, -36(%ebp)         ## 4-byte Spill
	calll	__ZN4Base16getPrivateAttribEv
	.loc	60 28 51                ## main.cpp:28:51
	movl	-36(%ebp), %ecx         ## 4-byte Reload
	movl	%ecx, (%esp)
	movl	%eax, 4(%esp)
	calll	__ZNSt3__113basic_ostreamIcNS_11char_traitsIcEEElsEi
	movl	-20(%ebp), %ecx         ## 4-byte Reload
	leal	__ZNSt3__14endlIcNS_11char_traitsIcEEEERNS_13basic_ostreamIT_T0_EES7_-L2$pb(%ecx), %edx
	movl	%eax, -12(%ebp)
	movl	%edx, -16(%ebp)
	movl	-12(%ebp), %eax
Ltmp23:
	.loc	16 195 14 is_stmt 1     ## /Applications/Xcode.app/Contents/Developer/Toolchains/XcodeDefault.xctoolchain/usr/include/c++/v1/ostream:195:14
	movl	%eax, (%esp)
	calll	*-16(%ebp)
Ltmp24:
	.loc	60 29 5                 ## main.cpp:29:5
	movl	%eax, -40(%ebp)         ## 4-byte Spill
	addl	$48, %esp
	popl	%esi
	popl	%edi
	popl	%ebp
	retl
Ltmp25:
Lfunc_end2:
	.cfi_endproc
                                        ## -- End function
	.globl	__ZN7Derived8do_stuffEv ## -- Begin function _ZN7Derived8do_stuffEv
	.weak_def_can_be_hidden	__ZN7Derived8do_stuffEv
	.p2align	4, 0x90
__ZN7Derived8do_stuffEv:                ## @_ZN7Derived8do_stuffEv
Lfunc_begin3:
	.loc	60 31 0                 ## main.cpp:31:0
	.cfi_startproc
## BB#0:
	pushl	%ebp
Lcfi12:
	.cfi_def_cfa_offset 8
Lcfi13:
	.cfi_offset %ebp, -8
	movl	%esp, %ebp
Lcfi14:
	.cfi_def_cfa_register %ebp
	pushl	%esi
	subl	$36, %esp
Lcfi15:
	.cfi_offset %esi, -12
	calll	L3$pb
L3$pb:
	popl	%eax
	movl	8(%ebp), %ecx
	movl	L__ZNSt3__14coutE$non_lazy_ptr-L3$pb(%eax), %edx
	leal	L_.str.5-L3$pb(%eax), %esi
Ltmp26:
	.loc	60 31 40 prologue_end   ## main.cpp:31:40
	movl	%edx, (%esp)
	movl	%esi, 4(%esp)
	movl	%eax, -16(%ebp)         ## 4-byte Spill
	movl	%ecx, -20(%ebp)         ## 4-byte Spill
	calll	__ZNSt3__1lsINS_11char_traitsIcEEEERNS_13basic_ostreamIcT_EES6_PKc
	movl	-16(%ebp), %ecx         ## 4-byte Reload
	leal	__ZNSt3__14endlIcNS_11char_traitsIcEEEERNS_13basic_ostreamIT_T0_EES7_-L3$pb(%ecx), %edx
	movl	%eax, -8(%ebp)
	movl	%edx, -12(%ebp)
	movl	-8(%ebp), %eax
Ltmp27:
	.loc	16 195 14               ## /Applications/Xcode.app/Contents/Developer/Toolchains/XcodeDefault.xctoolchain/usr/include/c++/v1/ostream:195:14
	movl	%eax, (%esp)
	calll	*-12(%ebp)
Ltmp28:
	.loc	60 31 78                ## main.cpp:31:78
	movl	%eax, -24(%ebp)         ## 4-byte Spill
	addl	$36, %esp
	popl	%esi
	popl	%ebp
	retl
Ltmp29:
Lfunc_end3:
	.cfi_endproc
                                        ## -- End function
	.globl	__ZN7DerivedD1Ev        ## -- Begin function _ZN7DerivedD1Ev
	.weak_def_can_be_hidden	__ZN7DerivedD1Ev
	.p2align	4, 0x90
__ZN7DerivedD1Ev:                       ## @_ZN7DerivedD1Ev
Lfunc_begin4:
	.loc	60 20 0                 ## main.cpp:20:0
	.cfi_startproc
## BB#0:
	pushl	%ebp
Lcfi16:
	.cfi_def_cfa_offset 8
Lcfi17:
	.cfi_offset %ebp, -8
	movl	%esp, %ebp
Lcfi18:
	.cfi_def_cfa_register %ebp
	subl	$8, %esp
	movl	8(%ebp), %eax
	movl	8(%ebp), %ecx
Ltmp30:
	.loc	60 20 7 prologue_end    ## main.cpp:20:7
	movl	%ecx, (%esp)
	movl	%eax, -4(%ebp)          ## 4-byte Spill
	calll	__ZN7DerivedD2Ev
	addl	$8, %esp
	popl	%ebp
	retl
Ltmp31:
Lfunc_end4:
	.cfi_endproc
                                        ## -- End function
	.private_extern	___clang_call_terminate ## -- Begin function __clang_call_terminate
	.globl	___clang_call_terminate
	.weak_definition	___clang_call_terminate
	.p2align	4, 0x90
___clang_call_terminate:                ## @__clang_call_terminate
Lfunc_begin5:
	.cfi_startproc
## BB#0:
	subl	$12, %esp
Lcfi19:
	.cfi_def_cfa_offset 16
	movl	16(%esp), %eax
	movl	%eax, (%esp)
	calll	___cxa_begin_catch
	movl	%eax, 8(%esp)           ## 4-byte Spill
	calll	__ZSt9terminatev
Lfunc_end5:
	.cfi_endproc
                                        ## -- End function
	.globl	__ZN7DerivedC2Ev        ## -- Begin function _ZN7DerivedC2Ev
	.weak_def_can_be_hidden	__ZN7DerivedC2Ev
	.p2align	4, 0x90
__ZN7DerivedC2Ev:                       ## @_ZN7DerivedC2Ev
Lfunc_begin6:
	.loc	60 20 0                 ## main.cpp:20:0
	.cfi_startproc
## BB#0:
	pushl	%ebp
Lcfi20:
	.cfi_def_cfa_offset 8
Lcfi21:
	.cfi_offset %ebp, -8
	movl	%esp, %ebp
Lcfi22:
	.cfi_def_cfa_register %ebp
	pushl	%esi
	subl	$20, %esp
Lcfi23:
	.cfi_offset %esi, -12
	calll	L6$pb
L6$pb:
	popl	%eax
	movl	8(%ebp), %ecx
	movl	8(%ebp), %edx
Ltmp32:
	.loc	60 20 7 prologue_end    ## main.cpp:20:7
	movl	%edx, %esi
	movl	%esi, (%esp)
	movl	%eax, -8(%ebp)          ## 4-byte Spill
	movl	%ecx, -12(%ebp)         ## 4-byte Spill
	movl	%edx, -16(%ebp)         ## 4-byte Spill
	calll	__ZN4BaseC2Ev
	movl	-8(%ebp), %eax          ## 4-byte Reload
	movl	L__ZTV7Derived$non_lazy_ptr-L6$pb(%eax), %ecx
	addl	$8, %ecx
	movl	-16(%ebp), %edx         ## 4-byte Reload
	movl	%ecx, (%edx)
	addl	$20, %esp
	popl	%esi
	popl	%ebp
	retl
Ltmp33:
Lfunc_end6:
	.cfi_endproc
                                        ## -- End function
	.globl	__ZN4BaseC2Ev           ## -- Begin function _ZN4BaseC2Ev
	.weak_def_can_be_hidden	__ZN4BaseC2Ev
	.p2align	4, 0x90
__ZN4BaseC2Ev:                          ## @_ZN4BaseC2Ev
Lfunc_begin7:
	.loc	60 6 0                  ## main.cpp:6:0
	.cfi_startproc
## BB#0:
	pushl	%ebp
Lcfi24:
	.cfi_def_cfa_offset 8
Lcfi25:
	.cfi_offset %ebp, -8
	movl	%esp, %ebp
Lcfi26:
	.cfi_def_cfa_register %ebp
	pushl	%eax
	calll	L7$pb
L7$pb:
	popl	%eax
	movl	8(%ebp), %ecx
	movl	L__ZTV4Base$non_lazy_ptr-L7$pb(%eax), %eax
	addl	$8, %eax
	movl	8(%ebp), %edx
Ltmp34:
	.loc	60 6 7 prologue_end     ## main.cpp:6:7
	movl	%eax, (%edx)
	movl	%ecx, -4(%ebp)          ## 4-byte Spill
	addl	$4, %esp
	popl	%ebp
	retl
Ltmp35:
Lfunc_end7:
	.cfi_endproc
                                        ## -- End function
	.globl	__ZN7DerivedD0Ev        ## -- Begin function _ZN7DerivedD0Ev
	.weak_def_can_be_hidden	__ZN7DerivedD0Ev
	.p2align	4, 0x90
__ZN7DerivedD0Ev:                       ## @_ZN7DerivedD0Ev
Lfunc_begin8:
	.loc	60 20 0                 ## main.cpp:20:0
	.cfi_startproc
	.cfi_personality 155, L___gxx_personality_v0$non_lazy_ptr
	.cfi_lsda 16, Lexception1
## BB#0:
	pushl	%ebp
Lcfi27:
	.cfi_def_cfa_offset 8
Lcfi28:
	.cfi_offset %ebp, -8
	movl	%esp, %ebp
Lcfi29:
	.cfi_def_cfa_register %ebp
	subl	$24, %esp
	movl	8(%ebp), %eax
	movl	8(%ebp), %ecx
Ltmp36:
Ltmp39:
	.loc	60 20 7 prologue_end    ## main.cpp:20:7
	movl	%esp, %edx
	movl	%ecx, (%edx)
	movl	%eax, -12(%ebp)         ## 4-byte Spill
	movl	%ecx, -16(%ebp)         ## 4-byte Spill
	calll	__ZN7DerivedD1Ev
Ltmp37:
	jmp	LBB8_1
LBB8_1:
	movl	-16(%ebp), %eax         ## 4-byte Reload
	movl	%eax, (%esp)
	calll	__ZdlPv
	addl	$24, %esp
	popl	%ebp
	retl
LBB8_2:
Ltmp38:
	movl	%eax, -4(%ebp)
	movl	%edx, -8(%ebp)
	movl	-16(%ebp), %eax         ## 4-byte Reload
	movl	%eax, (%esp)
	calll	__ZdlPv
## BB#3:
	movl	-4(%ebp), %eax
	movl	%eax, (%esp)
	calll	__Unwind_Resume
Ltmp40:
Lfunc_end8:
	.cfi_endproc
	.section	__TEXT,__gcc_except_tab
	.p2align	2
GCC_except_table8:
Lexception1:
	.byte	255                     ## @LPStart Encoding = omit
	.byte	155                     ## @TType Encoding = indirect pcrel sdata4
	.asciz	"\234"                  ## @TType base offset
	.byte	3                       ## Call site Encoding = udata4
	.byte	26                      ## Call site table length
Lset10 = Ltmp36-Lfunc_begin8            ## >> Call Site 1 <<
	.long	Lset10
Lset11 = Ltmp37-Ltmp36                  ##   Call between Ltmp36 and Ltmp37
	.long	Lset11
Lset12 = Ltmp38-Lfunc_begin8            ##     jumps to Ltmp38
	.long	Lset12
	.byte	0                       ##   On action: cleanup
Lset13 = Ltmp37-Lfunc_begin8            ## >> Call Site 2 <<
	.long	Lset13
Lset14 = Lfunc_end8-Ltmp37              ##   Call between Ltmp37 and Lfunc_end8
	.long	Lset14
	.long	0                       ##     has no landing pad
	.byte	0                       ##   On action: cleanup
	.p2align	2
                                        ## -- End function
	.section	__TEXT,__text,regular,pure_instructions
	.globl	__ZN7Derived14do_other_stuffEv ## -- Begin function _ZN7Derived14do_other_stuffEv
	.weak_def_can_be_hidden	__ZN7Derived14do_other_stuffEv
	.p2align	4, 0x90
__ZN7Derived14do_other_stuffEv:         ## @_ZN7Derived14do_other_stuffEv
Lfunc_begin9:
	.loc	60 32 0                 ## main.cpp:32:0
	.cfi_startproc
## BB#0:
	pushl	%ebp
Lcfi30:
	.cfi_def_cfa_offset 8
Lcfi31:
	.cfi_offset %ebp, -8
	movl	%esp, %ebp
Lcfi32:
	.cfi_def_cfa_register %ebp
	pushl	%esi
	subl	$36, %esp
Lcfi33:
	.cfi_offset %esi, -12
	calll	L9$pb
L9$pb:
	popl	%eax
	movl	8(%ebp), %ecx
	movl	L__ZNSt3__14coutE$non_lazy_ptr-L9$pb(%eax), %edx
	leal	L_.str.3-L9$pb(%eax), %esi
Ltmp41:
	.loc	60 32 46 prologue_end   ## main.cpp:32:46
	movl	%edx, (%esp)
	movl	%esi, 4(%esp)
	movl	%eax, -16(%ebp)         ## 4-byte Spill
	movl	%ecx, -20(%ebp)         ## 4-byte Spill
	calll	__ZNSt3__1lsINS_11char_traitsIcEEEERNS_13basic_ostreamIcT_EES6_PKc
	movl	-16(%ebp), %ecx         ## 4-byte Reload
	leal	__ZNSt3__14endlIcNS_11char_traitsIcEEEERNS_13basic_ostreamIT_T0_EES7_-L9$pb(%ecx), %edx
	movl	%eax, -8(%ebp)
	movl	%edx, -12(%ebp)
	movl	-8(%ebp), %eax
Ltmp42:
	.loc	16 195 14               ## /Applications/Xcode.app/Contents/Developer/Toolchains/XcodeDefault.xctoolchain/usr/include/c++/v1/ostream:195:14
	movl	%eax, (%esp)
	calll	*-12(%ebp)
Ltmp43:
	.loc	60 32 90                ## main.cpp:32:90
	movl	%eax, -24(%ebp)         ## 4-byte Spill
	addl	$36, %esp
	popl	%esi
	popl	%ebp
	retl
Ltmp44:
Lfunc_end9:
	.cfi_endproc
                                        ## -- End function
	.globl	__ZN4BaseD1Ev           ## -- Begin function _ZN4BaseD1Ev
	.weak_def_can_be_hidden	__ZN4BaseD1Ev
	.p2align	4, 0x90
__ZN4BaseD1Ev:                          ## @_ZN4BaseD1Ev
Lfunc_begin10:
	.loc	60 12 0                 ## main.cpp:12:0
	.cfi_startproc
## BB#0:
	pushl	%ebp
Lcfi34:
	.cfi_def_cfa_offset 8
Lcfi35:
	.cfi_offset %ebp, -8
	movl	%esp, %ebp
Lcfi36:
	.cfi_def_cfa_register %ebp
	subl	$8, %esp
	movl	8(%ebp), %eax
	movl	8(%ebp), %ecx
Ltmp45:
	.loc	60 12 24 prologue_end   ## main.cpp:12:24
	movl	%ecx, (%esp)
	movl	%eax, -4(%ebp)          ## 4-byte Spill
	calll	__ZN4BaseD2Ev
	.loc	60 12 72 is_stmt 0      ## main.cpp:12:72
	addl	$8, %esp
	popl	%ebp
	retl
Ltmp46:
Lfunc_end10:
	.cfi_endproc
                                        ## -- End function
	.globl	__ZN4BaseD0Ev           ## -- Begin function _ZN4BaseD0Ev
	.weak_def_can_be_hidden	__ZN4BaseD0Ev
	.p2align	4, 0x90
__ZN4BaseD0Ev:                          ## @_ZN4BaseD0Ev
Lfunc_begin11:
	.loc	60 12 0 is_stmt 1       ## main.cpp:12:0
	.cfi_startproc
	.cfi_personality 155, L___gxx_personality_v0$non_lazy_ptr
	.cfi_lsda 16, Lexception2
## BB#0:
	pushl	%ebp
Lcfi37:
	.cfi_def_cfa_offset 8
Lcfi38:
	.cfi_offset %ebp, -8
	movl	%esp, %ebp
Lcfi39:
	.cfi_def_cfa_register %ebp
	subl	$24, %esp
	movl	8(%ebp), %eax
	movl	8(%ebp), %ecx
Ltmp47:
Ltmp50:
	.loc	60 12 24 prologue_end   ## main.cpp:12:24
	movl	%esp, %edx
	movl	%ecx, (%edx)
	movl	%eax, -12(%ebp)         ## 4-byte Spill
	movl	%ecx, -16(%ebp)         ## 4-byte Spill
	calll	__ZN4BaseD1Ev
Ltmp48:
	jmp	LBB11_1
LBB11_1:
	movl	-16(%ebp), %eax         ## 4-byte Reload
	movl	%eax, (%esp)
	calll	__ZdlPv
	.loc	60 12 72 is_stmt 0      ## main.cpp:12:72
	addl	$24, %esp
	popl	%ebp
	retl
LBB11_2:
Ltmp49:
	movl	%eax, -4(%ebp)
	movl	%edx, -8(%ebp)
	.loc	60 12 24                ## main.cpp:12:24
	movl	-16(%ebp), %eax         ## 4-byte Reload
	movl	%eax, (%esp)
	calll	__ZdlPv
## BB#3:
	movl	-4(%ebp), %eax
	movl	%eax, (%esp)
	calll	__Unwind_Resume
Ltmp51:
Lfunc_end11:
	.cfi_endproc
	.section	__TEXT,__gcc_except_tab
	.p2align	2
GCC_except_table11:
Lexception2:
	.byte	255                     ## @LPStart Encoding = omit
	.byte	155                     ## @TType Encoding = indirect pcrel sdata4
	.asciz	"\234"                  ## @TType base offset
	.byte	3                       ## Call site Encoding = udata4
	.byte	26                      ## Call site table length
Lset15 = Ltmp47-Lfunc_begin11           ## >> Call Site 1 <<
	.long	Lset15
Lset16 = Ltmp48-Ltmp47                  ##   Call between Ltmp47 and Ltmp48
	.long	Lset16
Lset17 = Ltmp49-Lfunc_begin11           ##     jumps to Ltmp49
	.long	Lset17
	.byte	0                       ##   On action: cleanup
Lset18 = Ltmp48-Lfunc_begin11           ## >> Call Site 2 <<
	.long	Lset18
Lset19 = Lfunc_end11-Ltmp48             ##   Call between Ltmp48 and Lfunc_end11
	.long	Lset19
	.long	0                       ##     has no landing pad
	.byte	0                       ##   On action: cleanup
	.p2align	2
                                        ## -- End function
	.section	__TEXT,__text,regular,pure_instructions
	.globl	__ZN4Base8do_stuffEv    ## -- Begin function _ZN4Base8do_stuffEv
	.weak_def_can_be_hidden	__ZN4Base8do_stuffEv
	.p2align	4, 0x90
__ZN4Base8do_stuffEv:                   ## @_ZN4Base8do_stuffEv
Lfunc_begin12:
	.loc	60 13 0 is_stmt 1       ## main.cpp:13:0
	.cfi_startproc
## BB#0:
	pushl	%ebp
Lcfi40:
	.cfi_def_cfa_offset 8
Lcfi41:
	.cfi_offset %ebp, -8
	movl	%esp, %ebp
Lcfi42:
	.cfi_def_cfa_register %ebp
	pushl	%esi
	subl	$36, %esp
Lcfi43:
	.cfi_offset %esi, -12
	calll	L12$pb
L12$pb:
	popl	%eax
	movl	8(%ebp), %ecx
	movl	L__ZNSt3__14coutE$non_lazy_ptr-L12$pb(%eax), %edx
	leal	L_.str.1-L12$pb(%eax), %esi
Ltmp52:
	.loc	60 13 44 prologue_end   ## main.cpp:13:44
	movl	%edx, (%esp)
	movl	%esi, 4(%esp)
	movl	%eax, -16(%ebp)         ## 4-byte Spill
	movl	%ecx, -20(%ebp)         ## 4-byte Spill
	calll	__ZNSt3__1lsINS_11char_traitsIcEEEERNS_13basic_ostreamIcT_EES6_PKc
	movl	-16(%ebp), %ecx         ## 4-byte Reload
	leal	__ZNSt3__14endlIcNS_11char_traitsIcEEEERNS_13basic_ostreamIT_T0_EES7_-L12$pb(%ecx), %edx
	movl	%eax, -8(%ebp)
	movl	%edx, -12(%ebp)
	movl	-8(%ebp), %eax
Ltmp53:
	.loc	16 195 14               ## /Applications/Xcode.app/Contents/Developer/Toolchains/XcodeDefault.xctoolchain/usr/include/c++/v1/ostream:195:14
	movl	%eax, (%esp)
	calll	*-12(%ebp)
Ltmp54:
	.loc	60 13 79                ## main.cpp:13:79
	movl	%eax, -24(%ebp)         ## 4-byte Spill
	addl	$36, %esp
	popl	%esi
	popl	%ebp
	retl
Ltmp55:
Lfunc_end12:
	.cfi_endproc
                                        ## -- End function
	.globl	__ZN4Base14do_other_stuffEv ## -- Begin function _ZN4Base14do_other_stuffEv
	.weak_def_can_be_hidden	__ZN4Base14do_other_stuffEv
	.p2align	4, 0x90
__ZN4Base14do_other_stuffEv:            ## @_ZN4Base14do_other_stuffEv
Lfunc_begin13:
	.loc	60 14 0                 ## main.cpp:14:0
	.cfi_startproc
## BB#0:
	pushl	%ebp
Lcfi44:
	.cfi_def_cfa_offset 8
Lcfi45:
	.cfi_offset %ebp, -8
	movl	%esp, %ebp
Lcfi46:
	.cfi_def_cfa_register %ebp
	pushl	%esi
	subl	$36, %esp
Lcfi47:
	.cfi_offset %esi, -12
	calll	L13$pb
L13$pb:
	popl	%eax
	movl	8(%ebp), %ecx
	movl	L__ZNSt3__14coutE$non_lazy_ptr-L13$pb(%eax), %edx
	leal	L_.str.2-L13$pb(%eax), %esi
Ltmp56:
	.loc	60 14 50 prologue_end   ## main.cpp:14:50
	movl	%edx, (%esp)
	movl	%esi, 4(%esp)
	movl	%eax, -16(%ebp)         ## 4-byte Spill
	movl	%ecx, -20(%ebp)         ## 4-byte Spill
	calll	__ZNSt3__1lsINS_11char_traitsIcEEEERNS_13basic_ostreamIcT_EES6_PKc
	movl	-16(%ebp), %ecx         ## 4-byte Reload
	leal	__ZNSt3__14endlIcNS_11char_traitsIcEEEERNS_13basic_ostreamIT_T0_EES7_-L13$pb(%ecx), %edx
	movl	%eax, -8(%ebp)
	movl	%edx, -12(%ebp)
	movl	-8(%ebp), %eax
Ltmp57:
	.loc	16 195 14               ## /Applications/Xcode.app/Contents/Developer/Toolchains/XcodeDefault.xctoolchain/usr/include/c++/v1/ostream:195:14
	movl	%eax, (%esp)
	calll	*-12(%ebp)
Ltmp58:
	.loc	60 14 91                ## main.cpp:14:91
	movl	%eax, -24(%ebp)         ## 4-byte Spill
	addl	$36, %esp
	popl	%esi
	popl	%ebp
	retl
Ltmp59:
Lfunc_end13:
	.cfi_endproc
                                        ## -- End function
	.globl	__ZN4BaseD2Ev           ## -- Begin function _ZN4BaseD2Ev
	.weak_def_can_be_hidden	__ZN4BaseD2Ev
	.p2align	4, 0x90
__ZN4BaseD2Ev:                          ## @_ZN4BaseD2Ev
Lfunc_begin14:
	.loc	60 12 0                 ## main.cpp:12:0
	.cfi_startproc
## BB#0:
	pushl	%ebp
Lcfi48:
	.cfi_def_cfa_offset 8
Lcfi49:
	.cfi_offset %ebp, -8
	movl	%esp, %ebp
Lcfi50:
	.cfi_def_cfa_register %ebp
	pushl	%ebx
	pushl	%edi
	pushl	%esi
	subl	$28, %esp
Lcfi51:
	.cfi_offset %esi, -20
Lcfi52:
	.cfi_offset %edi, -16
Lcfi53:
	.cfi_offset %ebx, -12
	calll	L14$pb
L14$pb:
	popl	%eax
	movl	8(%ebp), %ecx
	movl	L__ZNSt3__14coutE$non_lazy_ptr-L14$pb(%eax), %edx
	leal	L_.str-L14$pb(%eax), %esi
	movl	L__ZTV4Base$non_lazy_ptr-L14$pb(%eax), %edi
	addl	$8, %edi
	movl	8(%ebp), %ebx
Ltmp60:
	.loc	60 12 24 prologue_end   ## main.cpp:12:24
	movl	%edi, (%ebx)
Ltmp61:
	.loc	60 12 35 is_stmt 0      ## main.cpp:12:35
	movl	%edx, (%esp)
	movl	%esi, 4(%esp)
	movl	%eax, -24(%ebp)         ## 4-byte Spill
	movl	%ecx, -28(%ebp)         ## 4-byte Spill
	calll	__ZNSt3__1lsINS_11char_traitsIcEEEERNS_13basic_ostreamIcT_EES6_PKc
	movl	-24(%ebp), %ecx         ## 4-byte Reload
	leal	__ZNSt3__14endlIcNS_11char_traitsIcEEEERNS_13basic_ostreamIT_T0_EES7_-L14$pb(%ecx), %edx
	movl	%eax, -16(%ebp)
	movl	%edx, -20(%ebp)
	movl	-16(%ebp), %eax
Ltmp62:
	.loc	16 195 14 is_stmt 1     ## /Applications/Xcode.app/Contents/Developer/Toolchains/XcodeDefault.xctoolchain/usr/include/c++/v1/ostream:195:14
	movl	%eax, (%esp)
	calll	*-20(%ebp)
Ltmp63:
	.loc	60 12 72                ## main.cpp:12:72
	movl	%eax, -32(%ebp)         ## 4-byte Spill
	addl	$28, %esp
	popl	%esi
	popl	%edi
	popl	%ebx
	popl	%ebp
	retl
Ltmp64:
Lfunc_end14:
	.cfi_endproc
                                        ## -- End function
	.globl	__ZNSt3__1lsINS_11char_traitsIcEEEERNS_13basic_ostreamIcT_EES6_PKc ## -- Begin function _ZNSt3__1lsINS_11char_traitsIcEEEERNS_13basic_ostreamIcT_EES6_PKc
	.weak_definition	__ZNSt3__1lsINS_11char_traitsIcEEEERNS_13basic_ostreamIcT_EES6_PKc
	.p2align	4, 0x90
__ZNSt3__1lsINS_11char_traitsIcEEEERNS_13basic_ostreamIcT_EES6_PKc: ## @_ZNSt3__1lsINS_11char_traitsIcEEEERNS_13basic_ostreamIcT_EES6_PKc
Lfunc_begin15:
	.loc	16 863 0                ## /Applications/Xcode.app/Contents/Developer/Toolchains/XcodeDefault.xctoolchain/usr/include/c++/v1/ostream:863:0
	.cfi_startproc
## BB#0:
	pushl	%ebp
Lcfi54:
	.cfi_def_cfa_offset 8
Lcfi55:
	.cfi_offset %ebp, -8
	movl	%esp, %ebp
Lcfi56:
	.cfi_def_cfa_register %ebp
	pushl	%edi
	pushl	%esi
	subl	$32, %esp
Lcfi57:
	.cfi_offset %esi, -16
Lcfi58:
	.cfi_offset %edi, -12
	movl	12(%ebp), %eax
	movl	8(%ebp), %ecx
Ltmp65:
	.loc	16 864 44 prologue_end  ## /Applications/Xcode.app/Contents/Developer/Toolchains/XcodeDefault.xctoolchain/usr/include/c++/v1/ostream:864:44
	movl	8(%ebp), %edx
	.loc	16 864 50 is_stmt 0     ## /Applications/Xcode.app/Contents/Developer/Toolchains/XcodeDefault.xctoolchain/usr/include/c++/v1/ostream:864:50
	movl	12(%ebp), %esi
	.loc	16 864 73               ## /Applications/Xcode.app/Contents/Developer/Toolchains/XcodeDefault.xctoolchain/usr/include/c++/v1/ostream:864:73
	movl	12(%ebp), %edi
	.loc	16 864 57               ## /Applications/Xcode.app/Contents/Developer/Toolchains/XcodeDefault.xctoolchain/usr/include/c++/v1/ostream:864:57
	movl	%edi, (%esp)
	movl	%eax, -12(%ebp)         ## 4-byte Spill
	movl	%ecx, -16(%ebp)         ## 4-byte Spill
	movl	%edx, -20(%ebp)         ## 4-byte Spill
	movl	%esi, -24(%ebp)         ## 4-byte Spill
	calll	__ZNSt3__111char_traitsIcE6lengthEPKc
	.loc	16 864 12               ## /Applications/Xcode.app/Contents/Developer/Toolchains/XcodeDefault.xctoolchain/usr/include/c++/v1/ostream:864:12
	movl	-20(%ebp), %ecx         ## 4-byte Reload
	movl	%ecx, (%esp)
	movl	-24(%ebp), %ecx         ## 4-byte Reload
	movl	%ecx, 4(%esp)
	movl	%eax, 8(%esp)
	calll	__ZNSt3__124__put_character_sequenceIcNS_11char_traitsIcEEEERNS_13basic_ostreamIT_T0_EES7_PKS4_m
	.loc	16 864 5                ## /Applications/Xcode.app/Contents/Developer/Toolchains/XcodeDefault.xctoolchain/usr/include/c++/v1/ostream:864:5
	addl	$32, %esp
	popl	%esi
	popl	%edi
	popl	%ebp
	retl
Ltmp66:
Lfunc_end15:
	.cfi_endproc
                                        ## -- End function
	.private_extern	__ZNSt3__14endlIcNS_11char_traitsIcEEEERNS_13basic_ostreamIT_T0_EES7_ ## -- Begin function _ZNSt3__14endlIcNS_11char_traitsIcEEEERNS_13basic_ostreamIT_T0_EES7_
	.globl	__ZNSt3__14endlIcNS_11char_traitsIcEEEERNS_13basic_ostreamIT_T0_EES7_
	.weak_definition	__ZNSt3__14endlIcNS_11char_traitsIcEEEERNS_13basic_ostreamIT_T0_EES7_
	.p2align	4, 0x90
__ZNSt3__14endlIcNS_11char_traitsIcEEEERNS_13basic_ostreamIT_T0_EES7_: ## @_ZNSt3__14endlIcNS_11char_traitsIcEEEERNS_13basic_ostreamIT_T0_EES7_
Lfunc_begin16:
	.loc	16 1000 0 is_stmt 1     ## /Applications/Xcode.app/Contents/Developer/Toolchains/XcodeDefault.xctoolchain/usr/include/c++/v1/ostream:1000:0
	.cfi_startproc
	.cfi_personality 155, L___gxx_personality_v0$non_lazy_ptr
	.cfi_lsda 16, Lexception3
## BB#0:
	pushl	%ebp
Lcfi59:
	.cfi_def_cfa_offset 8
Lcfi60:
	.cfi_offset %ebp, -8
	movl	%esp, %ebp
Lcfi61:
	.cfi_def_cfa_register %ebp
	pushl	%ebx
	pushl	%edi
	pushl	%esi
	subl	$92, %esp
Lcfi62:
	.cfi_offset %esi, -20
Lcfi63:
	.cfi_offset %edi, -16
Lcfi64:
	.cfi_offset %ebx, -12
	calll	L16$pb
L16$pb:
	popl	%eax
	movl	8(%ebp), %ecx
Ltmp75:
	.loc	16 1001 5 prologue_end  ## /Applications/Xcode.app/Contents/Developer/Toolchains/XcodeDefault.xctoolchain/usr/include/c++/v1/ostream:1001:5
	movl	8(%ebp), %edx
	.loc	16 1001 14 is_stmt 0    ## /Applications/Xcode.app/Contents/Developer/Toolchains/XcodeDefault.xctoolchain/usr/include/c++/v1/ostream:1001:14
	movl	(%edx), %esi
	movl	-12(%esi), %esi
	movl	%edx, %edi
	addl	%esi, %edi
	movl	%edi, -28(%ebp)
	movb	$10, -29(%ebp)
	movl	-28(%ebp), %esi
Ltmp76:
	.loc	1 756 41 is_stmt 1      ## /Applications/Xcode.app/Contents/Developer/Toolchains/XcodeDefault.xctoolchain/usr/include/c++/v1/ios:756:41
	movl	%esp, %edi
	movl	%esi, 4(%edi)
	leal	-40(%ebp), %esi
	movl	%esi, (%edi)
	movl	%eax, -52(%ebp)         ## 4-byte Spill
	movl	%ecx, -56(%ebp)         ## 4-byte Spill
	movl	%edx, -60(%ebp)         ## 4-byte Spill
	movl	%esi, -64(%ebp)         ## 4-byte Spill
	calll	__ZNKSt3__18ios_base6getlocEv
	subl	$4, %esp
	movl	-64(%ebp), %eax         ## 4-byte Reload
	movl	%eax, -24(%ebp)
Ltmp77:
	.loc	5 212 40                ## /Applications/Xcode.app/Contents/Developer/Toolchains/XcodeDefault.xctoolchain/usr/include/c++/v1/__locale:212:40
	movl	-24(%ebp), %ecx
Ltmp67:
	.loc	5 212 44 is_stmt 0      ## /Applications/Xcode.app/Contents/Developer/Toolchains/XcodeDefault.xctoolchain/usr/include/c++/v1/__locale:212:44
	movl	-52(%ebp), %edx         ## 4-byte Reload
	movl	L__ZNSt3__15ctypeIcE2idE$non_lazy_ptr-L16$pb(%edx), %esi
	movl	%esp, %edi
	movl	%esi, 4(%edi)
	movl	%ecx, (%edi)
	calll	__ZNKSt3__16locale9use_facetERNS0_2idE
Ltmp68:
	movl	%eax, -68(%ebp)         ## 4-byte Spill
	jmp	LBB16_1
Ltmp78:
LBB16_1:
	.loc	1 756 57 is_stmt 1      ## /Applications/Xcode.app/Contents/Developer/Toolchains/XcodeDefault.xctoolchain/usr/include/c++/v1/ios:756:57
	movb	-29(%ebp), %al
	movl	-68(%ebp), %ecx         ## 4-byte Reload
	movl	%ecx, -16(%ebp)
	movb	%al, -17(%ebp)
	movl	-16(%ebp), %edx
Ltmp79:
	.loc	5 627 16                ## /Applications/Xcode.app/Contents/Developer/Toolchains/XcodeDefault.xctoolchain/usr/include/c++/v1/__locale:627:16
	movl	(%edx), %esi
	movl	28(%esi), %esi
	movsbl	-17(%ebp), %edi
Ltmp69:
	movl	%esp, %ebx
	movl	%edi, 4(%ebx)
	movl	%edx, (%ebx)
	calll	*%esi
Ltmp70:
	movb	%al, -69(%ebp)          ## 1-byte Spill
	jmp	LBB16_5
Ltmp80:
LBB16_2:
Ltmp71:
	.loc	1 757 1                 ## /Applications/Xcode.app/Contents/Developer/Toolchains/XcodeDefault.xctoolchain/usr/include/c++/v1/ios:757:1
	movl	%eax, -44(%ebp)
	movl	%edx, -48(%ebp)
Ltmp72:
	.loc	1 756 5                 ## /Applications/Xcode.app/Contents/Developer/Toolchains/XcodeDefault.xctoolchain/usr/include/c++/v1/ios:756:5
	movl	%esp, %eax
	leal	-40(%ebp), %edx
	movl	%edx, (%eax)
	calll	__ZNSt3__16localeD1Ev
Ltmp73:
	jmp	LBB16_3
LBB16_3:
	movl	-44(%ebp), %eax
	movl	%eax, (%esp)
	calll	__Unwind_Resume
LBB16_4:
Ltmp74:
	movl	%eax, (%esp)
	movl	%edx, -76(%ebp)         ## 4-byte Spill
	calll	___clang_call_terminate
LBB16_5:
	.loc	1 0 5 is_stmt 0         ## /Applications/Xcode.app/Contents/Developer/Toolchains/XcodeDefault.xctoolchain/usr/include/c++/v1/ios:0:5
	leal	-40(%ebp), %eax
	.loc	1 756 5                 ## /Applications/Xcode.app/Contents/Developer/Toolchains/XcodeDefault.xctoolchain/usr/include/c++/v1/ios:756:5
	movl	%eax, (%esp)
	calll	__ZNSt3__16localeD1Ev
Ltmp81:
	.loc	16 1001 10 is_stmt 1    ## /Applications/Xcode.app/Contents/Developer/Toolchains/XcodeDefault.xctoolchain/usr/include/c++/v1/ostream:1001:10
	movl	-60(%ebp), %eax         ## 4-byte Reload
	movl	%eax, (%esp)
	movb	-69(%ebp), %cl          ## 1-byte Reload
	movsbl	%cl, %edx
	movl	%edx, 4(%esp)
	calll	__ZNSt3__113basic_ostreamIcNS_11char_traitsIcEEE3putEc
	.loc	16 1002 5               ## /Applications/Xcode.app/Contents/Developer/Toolchains/XcodeDefault.xctoolchain/usr/include/c++/v1/ostream:1002:5
	movl	8(%ebp), %edx
	.loc	16 1002 10 is_stmt 0    ## /Applications/Xcode.app/Contents/Developer/Toolchains/XcodeDefault.xctoolchain/usr/include/c++/v1/ostream:1002:10
	movl	%edx, (%esp)
	movl	%eax, -80(%ebp)         ## 4-byte Spill
	calll	__ZNSt3__113basic_ostreamIcNS_11char_traitsIcEEE5flushEv
	.loc	16 1003 12 is_stmt 1    ## /Applications/Xcode.app/Contents/Developer/Toolchains/XcodeDefault.xctoolchain/usr/include/c++/v1/ostream:1003:12
	movl	8(%ebp), %edx
	.loc	16 1003 5 is_stmt 0     ## /Applications/Xcode.app/Contents/Developer/Toolchains/XcodeDefault.xctoolchain/usr/include/c++/v1/ostream:1003:5
	movl	%eax, -84(%ebp)         ## 4-byte Spill
	movl	%edx, %eax
	addl	$92, %esp
	popl	%esi
	popl	%edi
	popl	%ebx
	popl	%ebp
	retl
Ltmp82:
Lfunc_end16:
	.cfi_endproc
	.section	__TEXT,__gcc_except_tab
	.p2align	2
GCC_except_table16:
Lexception3:
	.byte	255                     ## @LPStart Encoding = omit
	.byte	155                     ## @TType Encoding = indirect pcrel sdata4
	.asciz	"\274"                  ## @TType base offset
	.byte	3                       ## Call site Encoding = udata4
	.byte	52                      ## Call site table length
Lset20 = Lfunc_begin16-Lfunc_begin16    ## >> Call Site 1 <<
	.long	Lset20
Lset21 = Ltmp67-Lfunc_begin16           ##   Call between Lfunc_begin16 and Ltmp67
	.long	Lset21
	.long	0                       ##     has no landing pad
	.byte	0                       ##   On action: cleanup
Lset22 = Ltmp67-Lfunc_begin16           ## >> Call Site 2 <<
	.long	Lset22
Lset23 = Ltmp70-Ltmp67                  ##   Call between Ltmp67 and Ltmp70
	.long	Lset23
Lset24 = Ltmp71-Lfunc_begin16           ##     jumps to Ltmp71
	.long	Lset24
	.byte	0                       ##   On action: cleanup
Lset25 = Ltmp72-Lfunc_begin16           ## >> Call Site 3 <<
	.long	Lset25
Lset26 = Ltmp73-Ltmp72                  ##   Call between Ltmp72 and Ltmp73
	.long	Lset26
Lset27 = Ltmp74-Lfunc_begin16           ##     jumps to Ltmp74
	.long	Lset27
	.byte	1                       ##   On action: 1
Lset28 = Ltmp73-Lfunc_begin16           ## >> Call Site 4 <<
	.long	Lset28
Lset29 = Lfunc_end16-Ltmp73             ##   Call between Ltmp73 and Lfunc_end16
	.long	Lset29
	.long	0                       ##     has no landing pad
	.byte	0                       ##   On action: cleanup
	.byte	1                       ## >> Action Record 1 <<
                                        ##   Catch TypeInfo 1
	.byte	0                       ##   No further actions
                                        ## >> Catch TypeInfos <<
	.long	0                       ## TypeInfo 1
	.p2align	2
                                        ## -- End function
	.section	__TEXT,__text,regular,pure_instructions
	.globl	__ZNSt3__124__put_character_sequenceIcNS_11char_traitsIcEEEERNS_13basic_ostreamIT_T0_EES7_PKS4_m ## -- Begin function _ZNSt3__124__put_character_sequenceIcNS_11char_traitsIcEEEERNS_13basic_ostreamIT_T0_EES7_PKS4_m
	.weak_definition	__ZNSt3__124__put_character_sequenceIcNS_11char_traitsIcEEEERNS_13basic_ostreamIT_T0_EES7_PKS4_m
	.p2align	4, 0x90
__ZNSt3__124__put_character_sequenceIcNS_11char_traitsIcEEEERNS_13basic_ostreamIT_T0_EES7_PKS4_m: ## @_ZNSt3__124__put_character_sequenceIcNS_11char_traitsIcEEEERNS_13basic_ostreamIT_T0_EES7_PKS4_m
Lfunc_begin17:
	.loc	16 716 0 is_stmt 1      ## /Applications/Xcode.app/Contents/Developer/Toolchains/XcodeDefault.xctoolchain/usr/include/c++/v1/ostream:716:0
	.cfi_startproc
	.cfi_personality 155, L___gxx_personality_v0$non_lazy_ptr
	.cfi_lsda 16, Lexception4
## BB#0:
	pushl	%ebp
Lcfi65:
	.cfi_def_cfa_offset 8
Lcfi66:
	.cfi_offset %ebp, -8
	movl	%esp, %ebp
Lcfi67:
	.cfi_def_cfa_register %ebp
	pushl	%ebx
	pushl	%edi
	pushl	%esi
	subl	$236, %esp
Lcfi68:
	.cfi_offset %esi, -20
Lcfi69:
	.cfi_offset %edi, -16
Lcfi70:
	.cfi_offset %ebx, -12
	calll	L17$pb
L17$pb:
	popl	%eax
	movl	16(%ebp), %ecx
	movl	12(%ebp), %edx
	movl	8(%ebp), %esi
Ltmp113:
	.loc	16 721 61 prologue_end  ## /Applications/Xcode.app/Contents/Developer/Toolchains/XcodeDefault.xctoolchain/usr/include/c++/v1/ostream:721:61
	movl	8(%ebp), %edi
Ltmp83:
	.loc	16 721 57 is_stmt 0     ## /Applications/Xcode.app/Contents/Developer/Toolchains/XcodeDefault.xctoolchain/usr/include/c++/v1/ostream:721:57
	movl	%esp, %ebx
	movl	%edi, 4(%ebx)
	leal	-112(%ebp), %edi
	movl	%edi, (%ebx)
	movl	%eax, -140(%ebp)        ## 4-byte Spill
	movl	%ecx, -144(%ebp)        ## 4-byte Spill
	movl	%edx, -148(%ebp)        ## 4-byte Spill
	movl	%esi, -152(%ebp)        ## 4-byte Spill
	calll	__ZNSt3__113basic_ostreamIcNS_11char_traitsIcEEE6sentryC1ERS3_
Ltmp84:
	jmp	LBB17_1
LBB17_1:
	.loc	16 0 57                 ## /Applications/Xcode.app/Contents/Developer/Toolchains/XcodeDefault.xctoolchain/usr/include/c++/v1/ostream:0:57
	leal	-112(%ebp), %eax
	movl	%eax, -104(%ebp)
	movl	-104(%ebp), %eax
Ltmp114:
	.loc	16 254 39 is_stmt 1     ## /Applications/Xcode.app/Contents/Developer/Toolchains/XcodeDefault.xctoolchain/usr/include/c++/v1/ostream:254:39
	movb	(%eax), %cl
	movb	%cl, -153(%ebp)         ## 1-byte Spill
Ltmp115:
## BB#2:
	.loc	16 722 13               ## /Applications/Xcode.app/Contents/Developer/Toolchains/XcodeDefault.xctoolchain/usr/include/c++/v1/ostream:722:13
	movb	-153(%ebp), %al         ## 1-byte Reload
	testb	$1, %al
	jne	LBB17_3
	jmp	LBB17_26
LBB17_3:
	.loc	16 0 13 is_stmt 0       ## /Applications/Xcode.app/Contents/Developer/Toolchains/XcodeDefault.xctoolchain/usr/include/c++/v1/ostream:0:13
	leal	-128(%ebp), %eax
Ltmp116:
	.loc	16 725 38 is_stmt 1     ## /Applications/Xcode.app/Contents/Developer/Toolchains/XcodeDefault.xctoolchain/usr/include/c++/v1/ostream:725:38
	movl	8(%ebp), %ecx
	movl	%eax, -96(%ebp)
	movl	%ecx, -100(%ebp)
	movl	-96(%ebp), %eax
Ltmp117:
	.loc	14 1032 32              ## /Applications/Xcode.app/Contents/Developer/Toolchains/XcodeDefault.xctoolchain/usr/include/c++/v1/iterator:1032:32
	movl	-100(%ebp), %ecx
	movl	%eax, -88(%ebp)
	movl	%ecx, -92(%ebp)
	movl	-88(%ebp), %eax
Ltmp118:
	.loc	14 1032 19 is_stmt 0    ## /Applications/Xcode.app/Contents/Developer/Toolchains/XcodeDefault.xctoolchain/usr/include/c++/v1/iterator:1032:19
	movl	-92(%ebp), %ecx
	movl	(%ecx), %edx
	movl	-12(%edx), %edx
	addl	%edx, %ecx
	movl	%ecx, -84(%ebp)
	movl	-84(%ebp), %ecx
	movl	%ecx, -80(%ebp)
	movl	-80(%ebp), %ecx
Ltmp119:
	.loc	1 340 55 is_stmt 1      ## /Applications/Xcode.app/Contents/Developer/Toolchains/XcodeDefault.xctoolchain/usr/include/c++/v1/ios:340:55
	movl	24(%ecx), %ecx
Ltmp120:
	.loc	14 1032 11              ## /Applications/Xcode.app/Contents/Developer/Toolchains/XcodeDefault.xctoolchain/usr/include/c++/v1/iterator:1032:11
	movl	%ecx, (%eax)
Ltmp121:
	.loc	16 726 34               ## /Applications/Xcode.app/Contents/Developer/Toolchains/XcodeDefault.xctoolchain/usr/include/c++/v1/ostream:726:34
	movl	12(%ebp), %eax
	.loc	16 727 35               ## /Applications/Xcode.app/Contents/Developer/Toolchains/XcodeDefault.xctoolchain/usr/include/c++/v1/ostream:727:35
	movl	8(%ebp), %ecx
	movl	(%ecx), %edx
	movl	-12(%edx), %edx
	addl	%edx, %ecx
	movl	%ecx, -60(%ebp)
	movl	-60(%ebp), %ecx
Ltmp122:
	.loc	1 442 12                ## /Applications/Xcode.app/Contents/Developer/Toolchains/XcodeDefault.xctoolchain/usr/include/c++/v1/ios:442:12
	movl	4(%ecx), %ecx
	movl	%eax, -160(%ebp)        ## 4-byte Spill
	movl	%ecx, -164(%ebp)        ## 4-byte Spill
Ltmp123:
## BB#4:
	.loc	16 727 48               ## /Applications/Xcode.app/Contents/Developer/Toolchains/XcodeDefault.xctoolchain/usr/include/c++/v1/ostream:727:48
	movl	-164(%ebp), %eax        ## 4-byte Reload
	andl	$176, %eax
	.loc	16 727 73 is_stmt 0     ## /Applications/Xcode.app/Contents/Developer/Toolchains/XcodeDefault.xctoolchain/usr/include/c++/v1/ostream:727:73
	cmpl	$32, %eax
	.loc	16 727 34               ## /Applications/Xcode.app/Contents/Developer/Toolchains/XcodeDefault.xctoolchain/usr/include/c++/v1/ostream:727:34
	jne	LBB17_6
## BB#5:
	.loc	16 728 38 is_stmt 1     ## /Applications/Xcode.app/Contents/Developer/Toolchains/XcodeDefault.xctoolchain/usr/include/c++/v1/ostream:728:38
	movl	12(%ebp), %eax
	.loc	16 728 44 is_stmt 0     ## /Applications/Xcode.app/Contents/Developer/Toolchains/XcodeDefault.xctoolchain/usr/include/c++/v1/ostream:728:44
	addl	16(%ebp), %eax
	.loc	16 727 34 is_stmt 1     ## /Applications/Xcode.app/Contents/Developer/Toolchains/XcodeDefault.xctoolchain/usr/include/c++/v1/ostream:727:34
	movl	%eax, -168(%ebp)        ## 4-byte Spill
	jmp	LBB17_7
LBB17_6:
	.loc	16 729 38               ## /Applications/Xcode.app/Contents/Developer/Toolchains/XcodeDefault.xctoolchain/usr/include/c++/v1/ostream:729:38
	movl	12(%ebp), %eax
	movl	%eax, -168(%ebp)        ## 4-byte Spill
LBB17_7:
	.loc	16 727 34               ## /Applications/Xcode.app/Contents/Developer/Toolchains/XcodeDefault.xctoolchain/usr/include/c++/v1/ostream:727:34
	movl	-168(%ebp), %eax        ## 4-byte Reload
	.loc	16 730 34               ## /Applications/Xcode.app/Contents/Developer/Toolchains/XcodeDefault.xctoolchain/usr/include/c++/v1/ostream:730:34
	movl	12(%ebp), %ecx
	.loc	16 730 40 is_stmt 0     ## /Applications/Xcode.app/Contents/Developer/Toolchains/XcodeDefault.xctoolchain/usr/include/c++/v1/ostream:730:40
	addl	16(%ebp), %ecx
	.loc	16 731 34 is_stmt 1     ## /Applications/Xcode.app/Contents/Developer/Toolchains/XcodeDefault.xctoolchain/usr/include/c++/v1/ostream:731:34
	movl	8(%ebp), %edx
	movl	(%edx), %esi
	movl	-12(%esi), %esi
	addl	%esi, %edx
	.loc	16 732 34               ## /Applications/Xcode.app/Contents/Developer/Toolchains/XcodeDefault.xctoolchain/usr/include/c++/v1/ostream:732:34
	movl	8(%ebp), %esi
	movl	(%esi), %edi
	movl	-12(%edi), %edi
	addl	%edi, %esi
	movl	%esi, -52(%ebp)
	movl	-52(%ebp), %esi
Ltmp124:
	.loc	1 764 34                ## /Applications/Xcode.app/Contents/Developer/Toolchains/XcodeDefault.xctoolchain/usr/include/c++/v1/ios:764:34
	movl	%eax, -172(%ebp)        ## 4-byte Spill
	movl	%ecx, -176(%ebp)        ## 4-byte Spill
	movl	%edx, -180(%ebp)        ## 4-byte Spill
	movl	%esi, -184(%ebp)        ## 4-byte Spill
	calll	__ZNSt3__111char_traitsIcE3eofEv
	.loc	1 764 54 is_stmt 0      ## /Applications/Xcode.app/Contents/Developer/Toolchains/XcodeDefault.xctoolchain/usr/include/c++/v1/ios:764:54
	movl	-184(%ebp), %ecx        ## 4-byte Reload
	movl	76(%ecx), %edx
	.loc	1 764 9                 ## /Applications/Xcode.app/Contents/Developer/Toolchains/XcodeDefault.xctoolchain/usr/include/c++/v1/ios:764:9
	movl	%eax, (%esp)
	movl	%edx, 4(%esp)
	calll	__ZNSt3__111char_traitsIcE11eq_int_typeEii
Ltmp125:
	.loc	1 764 9                 ## /Applications/Xcode.app/Contents/Developer/Toolchains/XcodeDefault.xctoolchain/usr/include/c++/v1/ios:764:9
	testb	$1, %al
	jne	LBB17_8
	jmp	LBB17_16
LBB17_8:
	.loc	1 0 9                   ## /Applications/Xcode.app/Contents/Developer/Toolchains/XcodeDefault.xctoolchain/usr/include/c++/v1/ios:0:9
	movl	-184(%ebp), %eax        ## 4-byte Reload
	movl	%eax, -28(%ebp)
	movb	$32, -29(%ebp)
	movl	-28(%ebp), %ecx
Ltmp85:
Ltmp126:
	.loc	1 756 41 is_stmt 1      ## /Applications/Xcode.app/Contents/Developer/Toolchains/XcodeDefault.xctoolchain/usr/include/c++/v1/ios:756:41
	movl	%esp, %edx
	movl	%ecx, 4(%edx)
	leal	-40(%ebp), %ecx
	movl	%ecx, (%edx)
	calll	__ZNKSt3__18ios_base6getlocEv
	subl	$4, %esp
Ltmp86:
	jmp	LBB17_9
LBB17_9:
	.loc	1 0 41 is_stmt 0        ## /Applications/Xcode.app/Contents/Developer/Toolchains/XcodeDefault.xctoolchain/usr/include/c++/v1/ios:0:41
	leal	-40(%ebp), %eax
	movl	%eax, -24(%ebp)
Ltmp127:
	.loc	5 212 40 is_stmt 1      ## /Applications/Xcode.app/Contents/Developer/Toolchains/XcodeDefault.xctoolchain/usr/include/c++/v1/__locale:212:40
	movl	-24(%ebp), %eax
Ltmp87:
	.loc	5 212 44 is_stmt 0      ## /Applications/Xcode.app/Contents/Developer/Toolchains/XcodeDefault.xctoolchain/usr/include/c++/v1/__locale:212:44
	movl	-140(%ebp), %ecx        ## 4-byte Reload
	movl	L__ZNSt3__15ctypeIcE2idE$non_lazy_ptr-L17$pb(%ecx), %edx
	movl	%esp, %esi
	movl	%edx, 4(%esi)
	movl	%eax, (%esi)
	calll	__ZNKSt3__16locale9use_facetERNS0_2idE
Ltmp88:
	movl	%eax, -188(%ebp)        ## 4-byte Spill
	jmp	LBB17_10
Ltmp128:
LBB17_10:
	.loc	1 756 57 is_stmt 1      ## /Applications/Xcode.app/Contents/Developer/Toolchains/XcodeDefault.xctoolchain/usr/include/c++/v1/ios:756:57
	movb	-29(%ebp), %al
	movl	-188(%ebp), %ecx        ## 4-byte Reload
	movl	%ecx, -16(%ebp)
	movb	%al, -17(%ebp)
	movl	-16(%ebp), %edx
Ltmp129:
	.loc	5 627 16                ## /Applications/Xcode.app/Contents/Developer/Toolchains/XcodeDefault.xctoolchain/usr/include/c++/v1/__locale:627:16
	movl	(%edx), %esi
	movl	28(%esi), %esi
	movsbl	-17(%ebp), %edi
Ltmp89:
	movl	%esp, %ebx
	movl	%edi, 4(%ebx)
	movl	%edx, (%ebx)
	calll	*%esi
Ltmp90:
	movb	%al, -189(%ebp)         ## 1-byte Spill
	jmp	LBB17_14
Ltmp130:
LBB17_11:
Ltmp91:
	.loc	1 757 1                 ## /Applications/Xcode.app/Contents/Developer/Toolchains/XcodeDefault.xctoolchain/usr/include/c++/v1/ios:757:1
	movl	%eax, -44(%ebp)
	movl	%edx, -48(%ebp)
Ltmp92:
	.loc	1 756 5                 ## /Applications/Xcode.app/Contents/Developer/Toolchains/XcodeDefault.xctoolchain/usr/include/c++/v1/ios:756:5
	movl	%esp, %eax
	leal	-40(%ebp), %edx
	movl	%edx, (%eax)
	calll	__ZNSt3__16localeD1Ev
Ltmp93:
	jmp	LBB17_12
LBB17_12:
	movl	-44(%ebp), %eax
	movl	-48(%ebp), %ecx
	movl	%eax, -196(%ebp)        ## 4-byte Spill
	movl	%ecx, -200(%ebp)        ## 4-byte Spill
	jmp	LBB17_24
LBB17_13:
Ltmp94:
	movl	%eax, (%esp)
	movl	%edx, -204(%ebp)        ## 4-byte Spill
	calll	___clang_call_terminate
LBB17_14:
Ltmp95:
	movl	%esp, %eax
	leal	-40(%ebp), %ecx
	movl	%ecx, (%eax)
	calll	__ZNSt3__16localeD1Ev
Ltmp96:
	jmp	LBB17_15
Ltmp131:
LBB17_15:
	.loc	1 765 19                ## /Applications/Xcode.app/Contents/Developer/Toolchains/XcodeDefault.xctoolchain/usr/include/c++/v1/ios:765:19
	movb	-189(%ebp), %al         ## 1-byte Reload
	movsbl	%al, %ecx
	.loc	1 765 17 is_stmt 0      ## /Applications/Xcode.app/Contents/Developer/Toolchains/XcodeDefault.xctoolchain/usr/include/c++/v1/ios:765:17
	movl	-184(%ebp), %edx        ## 4-byte Reload
	movl	%ecx, 76(%edx)
Ltmp132:
LBB17_16:
	.loc	1 766 12 is_stmt 1      ## /Applications/Xcode.app/Contents/Developer/Toolchains/XcodeDefault.xctoolchain/usr/include/c++/v1/ios:766:12
	movl	-184(%ebp), %eax        ## 4-byte Reload
	movl	76(%eax), %ecx
	movb	%cl, %dl
	movb	%dl, -205(%ebp)         ## 1-byte Spill
Ltmp133:
## BB#17:
Ltmp97:
	.loc	16 725 17               ## /Applications/Xcode.app/Contents/Developer/Toolchains/XcodeDefault.xctoolchain/usr/include/c++/v1/ostream:725:17
	movl	-128(%ebp), %eax
	movl	%esp, %ecx
	movl	%eax, (%ecx)
	movb	-205(%ebp), %dl         ## 1-byte Reload
	movsbl	%dl, %eax
	movl	%eax, 20(%ecx)
	movl	-180(%ebp), %eax        ## 4-byte Reload
	movl	%eax, 16(%ecx)
	movl	-176(%ebp), %esi        ## 4-byte Reload
	movl	%esi, 12(%ecx)
	movl	-172(%ebp), %edi        ## 4-byte Reload
	movl	%edi, 8(%ecx)
	movl	-160(%ebp), %ebx        ## 4-byte Reload
	movl	%ebx, 4(%ecx)
	calll	__ZNSt3__116__pad_and_outputIcNS_11char_traitsIcEEEENS_19ostreambuf_iteratorIT_T0_EES6_PKS4_S8_S8_RNS_8ios_baseES4_
Ltmp98:
	movl	%eax, -212(%ebp)        ## 4-byte Spill
	jmp	LBB17_18
LBB17_18:
	.loc	16 0 17 is_stmt 0       ## /Applications/Xcode.app/Contents/Developer/Toolchains/XcodeDefault.xctoolchain/usr/include/c++/v1/ostream:0:17
	leal	-136(%ebp), %eax
	.loc	16 725 17               ## /Applications/Xcode.app/Contents/Developer/Toolchains/XcodeDefault.xctoolchain/usr/include/c++/v1/ostream:725:17
	movl	-212(%ebp), %ecx        ## 4-byte Reload
	movl	%ecx, -136(%ebp)
	movl	%eax, -56(%ebp)
	movl	-56(%ebp), %eax
Ltmp134:
	.loc	14 1044 77 is_stmt 1    ## /Applications/Xcode.app/Contents/Developer/Toolchains/XcodeDefault.xctoolchain/usr/include/c++/v1/iterator:1044:77
	cmpl	$0, (%eax)
Ltmp135:
	.loc	16 725 17               ## /Applications/Xcode.app/Contents/Developer/Toolchains/XcodeDefault.xctoolchain/usr/include/c++/v1/ostream:725:17
	jne	LBB17_25
## BB#19:
Ltmp136:
	.loc	16 733 17               ## /Applications/Xcode.app/Contents/Developer/Toolchains/XcodeDefault.xctoolchain/usr/include/c++/v1/ostream:733:17
	movl	8(%ebp), %eax
	movl	(%eax), %ecx
	movl	-12(%ecx), %ecx
	addl	%ecx, %eax
	movl	%eax, -72(%ebp)
	movl	$5, -76(%ebp)
	movl	-72(%ebp), %eax
Ltmp137:
	.loc	1 611 78                ## /Applications/Xcode.app/Contents/Developer/Toolchains/XcodeDefault.xctoolchain/usr/include/c++/v1/ios:611:78
	movl	-76(%ebp), %ecx
	movl	%eax, -64(%ebp)
	movl	%ecx, -68(%ebp)
	movl	-64(%ebp), %eax
Ltmp138:
	.loc	1 529 11                ## /Applications/Xcode.app/Contents/Developer/Toolchains/XcodeDefault.xctoolchain/usr/include/c++/v1/ios:529:11
	movl	16(%eax), %ecx
	.loc	1 529 24 is_stmt 0      ## /Applications/Xcode.app/Contents/Developer/Toolchains/XcodeDefault.xctoolchain/usr/include/c++/v1/ios:529:24
	movl	-68(%ebp), %edx
	.loc	1 529 22                ## /Applications/Xcode.app/Contents/Developer/Toolchains/XcodeDefault.xctoolchain/usr/include/c++/v1/ios:529:22
	orl	%edx, %ecx
Ltmp99:
	.loc	1 529 5                 ## /Applications/Xcode.app/Contents/Developer/Toolchains/XcodeDefault.xctoolchain/usr/include/c++/v1/ios:529:5
	movl	%esp, %edx
	movl	%ecx, 4(%edx)
	movl	%eax, (%edx)
	calll	__ZNSt3__18ios_base5clearEj
Ltmp100:
	jmp	LBB17_20
Ltmp139:
LBB17_20:
	.loc	1 611 87 is_stmt 1      ## /Applications/Xcode.app/Contents/Developer/Toolchains/XcodeDefault.xctoolchain/usr/include/c++/v1/ios:611:87
	jmp	LBB17_21
Ltmp140:
LBB17_21:
	.loc	16 733 17               ## /Applications/Xcode.app/Contents/Developer/Toolchains/XcodeDefault.xctoolchain/usr/include/c++/v1/ostream:733:17
	jmp	LBB17_25
Ltmp141:
LBB17_22:
Ltmp106:
	.loc	16 743 1                ## /Applications/Xcode.app/Contents/Developer/Toolchains/XcodeDefault.xctoolchain/usr/include/c++/v1/ostream:743:1
	movl	%eax, -116(%ebp)
	movl	%edx, -120(%ebp)
	jmp	LBB17_29
LBB17_23:
Ltmp101:
Ltmp142:
	.loc	16 743 1 is_stmt 0      ## /Applications/Xcode.app/Contents/Developer/Toolchains/XcodeDefault.xctoolchain/usr/include/c++/v1/ostream:743:1
	movl	%eax, -196(%ebp)        ## 4-byte Spill
	movl	%edx, -200(%ebp)        ## 4-byte Spill
	jmp	LBB17_24
LBB17_24:
	.loc	16 0 1                  ## /Applications/Xcode.app/Contents/Developer/Toolchains/XcodeDefault.xctoolchain/usr/include/c++/v1/ostream:0:1
	movl	-200(%ebp), %eax        ## 4-byte Reload
	movl	-196(%ebp), %ecx        ## 4-byte Reload
	.loc	16 743 1                ## /Applications/Xcode.app/Contents/Developer/Toolchains/XcodeDefault.xctoolchain/usr/include/c++/v1/ostream:743:1
	movl	%ecx, -116(%ebp)
	movl	%eax, -120(%ebp)
Ltmp143:
Ltmp102:
	.loc	16 736 5 is_stmt 1      ## /Applications/Xcode.app/Contents/Developer/Toolchains/XcodeDefault.xctoolchain/usr/include/c++/v1/ostream:736:5
	movl	%esp, %eax
	leal	-112(%ebp), %ecx
	movl	%ecx, (%eax)
	calll	__ZNSt3__113basic_ostreamIcNS_11char_traitsIcEEE6sentryD1Ev
Ltmp103:
	jmp	LBB17_28
LBB17_25:
Ltmp144:
	.loc	16 734 9                ## /Applications/Xcode.app/Contents/Developer/Toolchains/XcodeDefault.xctoolchain/usr/include/c++/v1/ostream:734:9
	jmp	LBB17_26
Ltmp145:
LBB17_26:
Ltmp104:
	.loc	16 736 5                ## /Applications/Xcode.app/Contents/Developer/Toolchains/XcodeDefault.xctoolchain/usr/include/c++/v1/ostream:736:5
	movl	%esp, %eax
	leal	-112(%ebp), %ecx
	movl	%ecx, (%eax)
	calll	__ZNSt3__113basic_ostreamIcNS_11char_traitsIcEEE6sentryD1Ev
Ltmp105:
	jmp	LBB17_27
LBB17_27:
Ltmp146:
	.loc	16 736 5 is_stmt 0      ## /Applications/Xcode.app/Contents/Developer/Toolchains/XcodeDefault.xctoolchain/usr/include/c++/v1/ostream:736:5
	jmp	LBB17_31
Ltmp147:
LBB17_28:
	.loc	16 736 5                ## /Applications/Xcode.app/Contents/Developer/Toolchains/XcodeDefault.xctoolchain/usr/include/c++/v1/ostream:736:5
	jmp	LBB17_29
LBB17_29:
Ltmp148:
	.loc	16 736 5                ## /Applications/Xcode.app/Contents/Developer/Toolchains/XcodeDefault.xctoolchain/usr/include/c++/v1/ostream:736:5
	movl	-116(%ebp), %eax
	movl	%esp, %ecx
	movl	%eax, (%ecx)
	calll	___cxa_begin_catch
Ltmp149:
	.loc	16 739 9 is_stmt 1      ## /Applications/Xcode.app/Contents/Developer/Toolchains/XcodeDefault.xctoolchain/usr/include/c++/v1/ostream:739:9
	movl	8(%ebp), %ecx
	movl	(%ecx), %edx
	movl	-12(%edx), %edx
	addl	%edx, %ecx
Ltmp107:
	.loc	16 739 14 is_stmt 0     ## /Applications/Xcode.app/Contents/Developer/Toolchains/XcodeDefault.xctoolchain/usr/include/c++/v1/ostream:739:14
	movl	%esp, %edx
	movl	%ecx, (%edx)
	movl	%eax, -216(%ebp)        ## 4-byte Spill
	calll	__ZNSt3__18ios_base33__set_badbit_and_consider_rethrowEv
Ltmp108:
	jmp	LBB17_30
LBB17_30:
	.loc	16 740 5 is_stmt 1      ## /Applications/Xcode.app/Contents/Developer/Toolchains/XcodeDefault.xctoolchain/usr/include/c++/v1/ostream:740:5
	calll	___cxa_end_catch
Ltmp150:
LBB17_31:
	.loc	16 742 12               ## /Applications/Xcode.app/Contents/Developer/Toolchains/XcodeDefault.xctoolchain/usr/include/c++/v1/ostream:742:12
	movl	8(%ebp), %eax
	.loc	16 742 5 is_stmt 0      ## /Applications/Xcode.app/Contents/Developer/Toolchains/XcodeDefault.xctoolchain/usr/include/c++/v1/ostream:742:5
	addl	$236, %esp
	popl	%esi
	popl	%edi
	popl	%ebx
	popl	%ebp
	retl
LBB17_32:
Ltmp109:
Ltmp151:
	.loc	16 743 1 is_stmt 1      ## /Applications/Xcode.app/Contents/Developer/Toolchains/XcodeDefault.xctoolchain/usr/include/c++/v1/ostream:743:1
	movl	%eax, -116(%ebp)
	movl	%edx, -120(%ebp)
Ltmp110:
	.loc	16 740 5                ## /Applications/Xcode.app/Contents/Developer/Toolchains/XcodeDefault.xctoolchain/usr/include/c++/v1/ostream:740:5
	calll	___cxa_end_catch
Ltmp111:
	jmp	LBB17_33
LBB17_33:
	jmp	LBB17_34
LBB17_34:
	movl	-116(%ebp), %eax
	movl	%eax, (%esp)
	calll	__Unwind_Resume
Ltmp152:
LBB17_35:
Ltmp112:
	.loc	16 736 5                ## /Applications/Xcode.app/Contents/Developer/Toolchains/XcodeDefault.xctoolchain/usr/include/c++/v1/ostream:736:5
	movl	%eax, (%esp)
	movl	%edx, -220(%ebp)        ## 4-byte Spill
	calll	___clang_call_terminate
Ltmp153:
Lfunc_end17:
	.cfi_endproc
	.section	__TEXT,__gcc_except_tab
	.p2align	2
GCC_except_table17:
Lexception4:
	.byte	255                     ## @LPStart Encoding = omit
	.byte	155                     ## @TType Encoding = indirect pcrel sdata4
	.asciz	"\253\201"              ## @TType base offset
	.byte	3                       ## Call site Encoding = udata4
	.ascii	"\234\001"              ## Call site table length
Lset30 = Ltmp83-Lfunc_begin17           ## >> Call Site 1 <<
	.long	Lset30
Lset31 = Ltmp84-Ltmp83                  ##   Call between Ltmp83 and Ltmp84
	.long	Lset31
Lset32 = Ltmp106-Lfunc_begin17          ##     jumps to Ltmp106
	.long	Lset32
	.byte	5                       ##   On action: 3
Lset33 = Ltmp85-Lfunc_begin17           ## >> Call Site 2 <<
	.long	Lset33
Lset34 = Ltmp86-Ltmp85                  ##   Call between Ltmp85 and Ltmp86
	.long	Lset34
Lset35 = Ltmp101-Lfunc_begin17          ##     jumps to Ltmp101
	.long	Lset35
	.byte	5                       ##   On action: 3
Lset36 = Ltmp87-Lfunc_begin17           ## >> Call Site 3 <<
	.long	Lset36
Lset37 = Ltmp90-Ltmp87                  ##   Call between Ltmp87 and Ltmp90
	.long	Lset37
Lset38 = Ltmp91-Lfunc_begin17           ##     jumps to Ltmp91
	.long	Lset38
	.byte	3                       ##   On action: 2
Lset39 = Ltmp92-Lfunc_begin17           ## >> Call Site 4 <<
	.long	Lset39
Lset40 = Ltmp93-Ltmp92                  ##   Call between Ltmp92 and Ltmp93
	.long	Lset40
Lset41 = Ltmp94-Lfunc_begin17           ##     jumps to Ltmp94
	.long	Lset41
	.byte	7                       ##   On action: 4
Lset42 = Ltmp95-Lfunc_begin17           ## >> Call Site 5 <<
	.long	Lset42
Lset43 = Ltmp100-Ltmp95                 ##   Call between Ltmp95 and Ltmp100
	.long	Lset43
Lset44 = Ltmp101-Lfunc_begin17          ##     jumps to Ltmp101
	.long	Lset44
	.byte	5                       ##   On action: 3
Lset45 = Ltmp102-Lfunc_begin17          ## >> Call Site 6 <<
	.long	Lset45
Lset46 = Ltmp103-Ltmp102                ##   Call between Ltmp102 and Ltmp103
	.long	Lset46
Lset47 = Ltmp112-Lfunc_begin17          ##     jumps to Ltmp112
	.long	Lset47
	.byte	5                       ##   On action: 3
Lset48 = Ltmp104-Lfunc_begin17          ## >> Call Site 7 <<
	.long	Lset48
Lset49 = Ltmp105-Ltmp104                ##   Call between Ltmp104 and Ltmp105
	.long	Lset49
Lset50 = Ltmp106-Lfunc_begin17          ##     jumps to Ltmp106
	.long	Lset50
	.byte	5                       ##   On action: 3
Lset51 = Ltmp105-Lfunc_begin17          ## >> Call Site 8 <<
	.long	Lset51
Lset52 = Ltmp107-Ltmp105                ##   Call between Ltmp105 and Ltmp107
	.long	Lset52
	.long	0                       ##     has no landing pad
	.byte	0                       ##   On action: cleanup
Lset53 = Ltmp107-Lfunc_begin17          ## >> Call Site 9 <<
	.long	Lset53
Lset54 = Ltmp108-Ltmp107                ##   Call between Ltmp107 and Ltmp108
	.long	Lset54
Lset55 = Ltmp109-Lfunc_begin17          ##     jumps to Ltmp109
	.long	Lset55
	.byte	0                       ##   On action: cleanup
Lset56 = Ltmp108-Lfunc_begin17          ## >> Call Site 10 <<
	.long	Lset56
Lset57 = Ltmp110-Ltmp108                ##   Call between Ltmp108 and Ltmp110
	.long	Lset57
	.long	0                       ##     has no landing pad
	.byte	0                       ##   On action: cleanup
Lset58 = Ltmp110-Lfunc_begin17          ## >> Call Site 11 <<
	.long	Lset58
Lset59 = Ltmp111-Ltmp110                ##   Call between Ltmp110 and Ltmp111
	.long	Lset59
Lset60 = Ltmp112-Lfunc_begin17          ##     jumps to Ltmp112
	.long	Lset60
	.byte	5                       ##   On action: 3
Lset61 = Ltmp111-Lfunc_begin17          ## >> Call Site 12 <<
	.long	Lset61
Lset62 = Lfunc_end17-Ltmp111            ##   Call between Ltmp111 and Lfunc_end17
	.long	Lset62
	.long	0                       ##     has no landing pad
	.byte	0                       ##   On action: cleanup
	.byte	0                       ## >> Action Record 1 <<
                                        ##   Cleanup
	.byte	0                       ##   No further actions
	.byte	1                       ## >> Action Record 2 <<
                                        ##   Catch TypeInfo 1
	.byte	125                     ##   Continue to action 1
	.byte	1                       ## >> Action Record 3 <<
                                        ##   Catch TypeInfo 1
	.byte	0                       ##   No further actions
	.byte	1                       ## >> Action Record 4 <<
                                        ##   Catch TypeInfo 1
	.byte	125                     ##   Continue to action 3
                                        ## >> Catch TypeInfos <<
	.long	0                       ## TypeInfo 1
	.p2align	2
                                        ## -- End function
	.section	__TEXT,__text,regular,pure_instructions
	.globl	__ZNSt3__111char_traitsIcE6lengthEPKc ## -- Begin function _ZNSt3__111char_traitsIcE6lengthEPKc
	.weak_definition	__ZNSt3__111char_traitsIcE6lengthEPKc
	.p2align	4, 0x90
__ZNSt3__111char_traitsIcE6lengthEPKc:  ## @_ZNSt3__111char_traitsIcE6lengthEPKc
Lfunc_begin18:
	.loc	10 217 0                ## /Applications/Xcode.app/Contents/Developer/Toolchains/XcodeDefault.xctoolchain/usr/include/c++/v1/__string:217:0
	.cfi_startproc
## BB#0:
	pushl	%ebp
Lcfi71:
	.cfi_def_cfa_offset 8
Lcfi72:
	.cfi_offset %ebp, -8
	movl	%esp, %ebp
Lcfi73:
	.cfi_def_cfa_register %ebp
	subl	$8, %esp
	movl	8(%ebp), %eax
Ltmp154:
	.loc	10 217 70 prologue_end  ## /Applications/Xcode.app/Contents/Developer/Toolchains/XcodeDefault.xctoolchain/usr/include/c++/v1/__string:217:70
	movl	8(%ebp), %ecx
	.loc	10 217 53 is_stmt 0     ## /Applications/Xcode.app/Contents/Developer/Toolchains/XcodeDefault.xctoolchain/usr/include/c++/v1/__string:217:53
	movl	%esp, %edx
	movl	%ecx, (%edx)
	movl	%eax, -4(%ebp)          ## 4-byte Spill
	calll	_strlen
	.loc	10 217 46               ## /Applications/Xcode.app/Contents/Developer/Toolchains/XcodeDefault.xctoolchain/usr/include/c++/v1/__string:217:46
	addl	$8, %esp
	popl	%ebp
	retl
Ltmp155:
Lfunc_end18:
	.cfi_endproc
                                        ## -- End function
	.private_extern	__ZNSt3__116__pad_and_outputIcNS_11char_traitsIcEEEENS_19ostreambuf_iteratorIT_T0_EES6_PKS4_S8_S8_RNS_8ios_baseES4_ ## -- Begin function _ZNSt3__116__pad_and_outputIcNS_11char_traitsIcEEEENS_19ostreambuf_iteratorIT_T0_EES6_PKS4_S8_S8_RNS_8ios_baseES4_
	.globl	__ZNSt3__116__pad_and_outputIcNS_11char_traitsIcEEEENS_19ostreambuf_iteratorIT_T0_EES6_PKS4_S8_S8_RNS_8ios_baseES4_
	.weak_definition	__ZNSt3__116__pad_and_outputIcNS_11char_traitsIcEEEENS_19ostreambuf_iteratorIT_T0_EES6_PKS4_S8_S8_RNS_8ios_baseES4_
	.p2align	4, 0x90
__ZNSt3__116__pad_and_outputIcNS_11char_traitsIcEEEENS_19ostreambuf_iteratorIT_T0_EES6_PKS4_S8_S8_RNS_8ios_baseES4_: ## @_ZNSt3__116__pad_and_outputIcNS_11char_traitsIcEEEENS_19ostreambuf_iteratorIT_T0_EES6_PKS4_S8_S8_RNS_8ios_baseES4_
Lfunc_begin19:
	.file	61 "/Applications/Xcode.app/Contents/Developer/Toolchains/XcodeDefault.xctoolchain/usr/include/c++/v1" "locale"
	.loc	61 1384 0 is_stmt 1     ## /Applications/Xcode.app/Contents/Developer/Toolchains/XcodeDefault.xctoolchain/usr/include/c++/v1/locale:1384:0
	.cfi_startproc
	.cfi_personality 155, L___gxx_personality_v0$non_lazy_ptr
	.cfi_lsda 16, Lexception5
## BB#0:
	pushl	%ebp
Lcfi74:
	.cfi_def_cfa_offset 8
Lcfi75:
	.cfi_offset %ebp, -8
	movl	%esp, %ebp
Lcfi76:
	.cfi_def_cfa_register %ebp
	pushl	%ebx
	pushl	%edi
	pushl	%esi
	subl	$428, %esp              ## imm = 0x1AC
Lcfi77:
	.cfi_offset %esi, -20
Lcfi78:
	.cfi_offset %edi, -16
Lcfi79:
	.cfi_offset %ebx, -12
	movb	28(%ebp), %al
	movl	24(%ebp), %ecx
	movl	20(%ebp), %edx
	movl	16(%ebp), %esi
	movl	12(%ebp), %edi
	leal	8(%ebp), %ebx
	movb	%al, -337(%ebp)         ## 1-byte Spill
	leal	-280(%ebp), %eax
	movl	%eax, -344(%ebp)        ## 4-byte Spill
	leal	-264(%ebp), %eax
Ltmp162:
	.loc	61 1385 13 prologue_end ## /Applications/Xcode.app/Contents/Developer/Toolchains/XcodeDefault.xctoolchain/usr/include/c++/v1/locale:1385:13
	movl	%eax, -348(%ebp)        ## 4-byte Spill
	movl	(%ebx), %eax
	movl	%eax, -352(%ebp)        ## 4-byte Spill
	movl	-348(%ebp), %eax        ## 4-byte Reload
	movl	%eax, -256(%ebp)
	movl	$-1, -260(%ebp)
	movl	-256(%ebp), %eax
Ltmp163:
	.loc	17 31 79                ## /Applications/Xcode.app/Contents/Developer/Toolchains/XcodeDefault.xctoolchain/usr/include/c++/v1/__nullptr:31:79
	movl	%eax, -356(%ebp)        ## 4-byte Spill
	movl	-260(%ebp), %eax
	movl	%eax, -360(%ebp)        ## 4-byte Spill
	movl	-356(%ebp), %eax        ## 4-byte Reload
	movl	%eax, -248(%ebp)
	movl	-360(%ebp), %eax        ## 4-byte Reload
	movl	%eax, -252(%ebp)
	movl	-248(%ebp), %eax
Ltmp164:
	.loc	17 31 71 is_stmt 0      ## /Applications/Xcode.app/Contents/Developer/Toolchains/XcodeDefault.xctoolchain/usr/include/c++/v1/__nullptr:31:71
	movl	$0, (%eax)
Ltmp165:
	.loc	17 47 77 is_stmt 1      ## /Applications/Xcode.app/Contents/Developer/Toolchains/XcodeDefault.xctoolchain/usr/include/c++/v1/__nullptr:47:77
	movl	-264(%ebp), %eax
Ltmp166:
	.loc	61 1385 24              ## /Applications/Xcode.app/Contents/Developer/Toolchains/XcodeDefault.xctoolchain/usr/include/c++/v1/locale:1385:24
	movl	%eax, -280(%ebp)
	movl	-344(%ebp), %eax        ## 4-byte Reload
	movl	%eax, -244(%ebp)
	.loc	61 1385 21 is_stmt 0    ## /Applications/Xcode.app/Contents/Developer/Toolchains/XcodeDefault.xctoolchain/usr/include/c++/v1/locale:1385:21
	movl	-352(%ebp), %eax        ## 4-byte Reload
	cmpl	$0, %eax
Ltmp167:
	.loc	61 1385 9               ## /Applications/Xcode.app/Contents/Developer/Toolchains/XcodeDefault.xctoolchain/usr/include/c++/v1/locale:1385:9
	movl	%ebx, -364(%ebp)        ## 4-byte Spill
	movl	%ecx, -368(%ebp)        ## 4-byte Spill
	movl	%edx, -372(%ebp)        ## 4-byte Spill
	movl	%esi, -376(%ebp)        ## 4-byte Spill
	movl	%edi, -380(%ebp)        ## 4-byte Spill
	jne	LBB19_2
## BB#1:
Ltmp168:
	.loc	61 1386 16 is_stmt 1    ## /Applications/Xcode.app/Contents/Developer/Toolchains/XcodeDefault.xctoolchain/usr/include/c++/v1/locale:1386:16
	movl	-364(%ebp), %eax        ## 4-byte Reload
	movl	(%eax), %ecx
	movl	%ecx, -272(%ebp)
	.loc	61 1386 9 is_stmt 0     ## /Applications/Xcode.app/Contents/Developer/Toolchains/XcodeDefault.xctoolchain/usr/include/c++/v1/locale:1386:9
	jmp	LBB19_29
Ltmp169:
LBB19_2:
	.loc	61 1387 23 is_stmt 1    ## /Applications/Xcode.app/Contents/Developer/Toolchains/XcodeDefault.xctoolchain/usr/include/c++/v1/locale:1387:23
	movl	20(%ebp), %eax
	.loc	61 1387 30 is_stmt 0    ## /Applications/Xcode.app/Contents/Developer/Toolchains/XcodeDefault.xctoolchain/usr/include/c++/v1/locale:1387:30
	movl	12(%ebp), %ecx
	.loc	61 1387 28              ## /Applications/Xcode.app/Contents/Developer/Toolchains/XcodeDefault.xctoolchain/usr/include/c++/v1/locale:1387:28
	subl	%ecx, %eax
	.loc	61 1387 16              ## /Applications/Xcode.app/Contents/Developer/Toolchains/XcodeDefault.xctoolchain/usr/include/c++/v1/locale:1387:16
	movl	%eax, -284(%ebp)
	.loc	61 1388 23 is_stmt 1    ## /Applications/Xcode.app/Contents/Developer/Toolchains/XcodeDefault.xctoolchain/usr/include/c++/v1/locale:1388:23
	movl	24(%ebp), %eax
	movl	%eax, -192(%ebp)
	movl	-192(%ebp), %eax
Ltmp170:
	.loc	1 504 12                ## /Applications/Xcode.app/Contents/Developer/Toolchains/XcodeDefault.xctoolchain/usr/include/c++/v1/ios:504:12
	movl	12(%eax), %eax
Ltmp171:
	.loc	61 1388 16              ## /Applications/Xcode.app/Contents/Developer/Toolchains/XcodeDefault.xctoolchain/usr/include/c++/v1/locale:1388:16
	movl	%eax, -288(%ebp)
Ltmp172:
	.loc	61 1389 9               ## /Applications/Xcode.app/Contents/Developer/Toolchains/XcodeDefault.xctoolchain/usr/include/c++/v1/locale:1389:9
	movl	-288(%ebp), %eax
	.loc	61 1389 14 is_stmt 0    ## /Applications/Xcode.app/Contents/Developer/Toolchains/XcodeDefault.xctoolchain/usr/include/c++/v1/locale:1389:14
	cmpl	-284(%ebp), %eax
Ltmp173:
	.loc	61 1389 9               ## /Applications/Xcode.app/Contents/Developer/Toolchains/XcodeDefault.xctoolchain/usr/include/c++/v1/locale:1389:9
	jle	LBB19_4
## BB#3:
Ltmp174:
	.loc	61 1390 17 is_stmt 1    ## /Applications/Xcode.app/Contents/Developer/Toolchains/XcodeDefault.xctoolchain/usr/include/c++/v1/locale:1390:17
	movl	-284(%ebp), %eax
	.loc	61 1390 14 is_stmt 0    ## /Applications/Xcode.app/Contents/Developer/Toolchains/XcodeDefault.xctoolchain/usr/include/c++/v1/locale:1390:14
	movl	-288(%ebp), %ecx
	subl	%eax, %ecx
	movl	%ecx, -288(%ebp)
	.loc	61 1390 9               ## /Applications/Xcode.app/Contents/Developer/Toolchains/XcodeDefault.xctoolchain/usr/include/c++/v1/locale:1390:9
	jmp	LBB19_5
LBB19_4:
	.loc	61 1392 14 is_stmt 1    ## /Applications/Xcode.app/Contents/Developer/Toolchains/XcodeDefault.xctoolchain/usr/include/c++/v1/locale:1392:14
	movl	$0, -288(%ebp)
Ltmp175:
LBB19_5:
	.loc	61 1393 23              ## /Applications/Xcode.app/Contents/Developer/Toolchains/XcodeDefault.xctoolchain/usr/include/c++/v1/locale:1393:23
	movl	16(%ebp), %eax
	.loc	61 1393 30 is_stmt 0    ## /Applications/Xcode.app/Contents/Developer/Toolchains/XcodeDefault.xctoolchain/usr/include/c++/v1/locale:1393:30
	movl	12(%ebp), %ecx
	.loc	61 1393 28              ## /Applications/Xcode.app/Contents/Developer/Toolchains/XcodeDefault.xctoolchain/usr/include/c++/v1/locale:1393:28
	subl	%ecx, %eax
	.loc	61 1393 16              ## /Applications/Xcode.app/Contents/Developer/Toolchains/XcodeDefault.xctoolchain/usr/include/c++/v1/locale:1393:16
	movl	%eax, -292(%ebp)
Ltmp176:
	.loc	61 1394 14 is_stmt 1    ## /Applications/Xcode.app/Contents/Developer/Toolchains/XcodeDefault.xctoolchain/usr/include/c++/v1/locale:1394:14
	cmpl	$0, -292(%ebp)
Ltmp177:
	.loc	61 1394 9 is_stmt 0     ## /Applications/Xcode.app/Contents/Developer/Toolchains/XcodeDefault.xctoolchain/usr/include/c++/v1/locale:1394:9
	jle	LBB19_9
## BB#6:
Ltmp178:
	.loc	61 1396 17 is_stmt 1    ## /Applications/Xcode.app/Contents/Developer/Toolchains/XcodeDefault.xctoolchain/usr/include/c++/v1/locale:1396:17
	movl	-364(%ebp), %eax        ## 4-byte Reload
	movl	(%eax), %ecx
	.loc	61 1396 32 is_stmt 0    ## /Applications/Xcode.app/Contents/Developer/Toolchains/XcodeDefault.xctoolchain/usr/include/c++/v1/locale:1396:32
	movl	12(%ebp), %edx
	.loc	61 1396 38              ## /Applications/Xcode.app/Contents/Developer/Toolchains/XcodeDefault.xctoolchain/usr/include/c++/v1/locale:1396:38
	movl	-292(%ebp), %esi
	movl	%ecx, -140(%ebp)
	movl	%edx, -144(%ebp)
	movl	%esi, -148(%ebp)
	movl	-140(%ebp), %ecx
Ltmp179:
	.loc	15 227 14 is_stmt 1     ## /Applications/Xcode.app/Contents/Developer/Toolchains/XcodeDefault.xctoolchain/usr/include/c++/v1/streambuf:227:14
	movl	(%ecx), %edx
	movl	48(%edx), %edx
	.loc	15 227 21 is_stmt 0     ## /Applications/Xcode.app/Contents/Developer/Toolchains/XcodeDefault.xctoolchain/usr/include/c++/v1/streambuf:227:21
	movl	-144(%ebp), %esi
	.loc	15 227 26               ## /Applications/Xcode.app/Contents/Developer/Toolchains/XcodeDefault.xctoolchain/usr/include/c++/v1/streambuf:227:26
	movl	-148(%ebp), %edi
	.loc	15 227 14               ## /Applications/Xcode.app/Contents/Developer/Toolchains/XcodeDefault.xctoolchain/usr/include/c++/v1/streambuf:227:14
	movl	%ecx, (%esp)
	movl	%esi, 4(%esp)
	movl	%edi, 8(%esp)
	calll	*%edx
Ltmp180:
	.loc	61 1396 44 is_stmt 1    ## /Applications/Xcode.app/Contents/Developer/Toolchains/XcodeDefault.xctoolchain/usr/include/c++/v1/locale:1396:44
	cmpl	-292(%ebp), %eax
Ltmp181:
	.loc	61 1396 13 is_stmt 0    ## /Applications/Xcode.app/Contents/Developer/Toolchains/XcodeDefault.xctoolchain/usr/include/c++/v1/locale:1396:13
	je	LBB19_8
## BB#7:
	.loc	61 0 13                 ## /Applications/Xcode.app/Contents/Developer/Toolchains/XcodeDefault.xctoolchain/usr/include/c++/v1/locale:0:13
	leal	-296(%ebp), %eax
	leal	-136(%ebp), %ecx
	movl	%ecx, -128(%ebp)
	movl	$-1, -132(%ebp)
	movl	-128(%ebp), %ecx
Ltmp182:
	.loc	17 31 79 is_stmt 1      ## /Applications/Xcode.app/Contents/Developer/Toolchains/XcodeDefault.xctoolchain/usr/include/c++/v1/__nullptr:31:79
	movl	-132(%ebp), %edx
	movl	%ecx, -120(%ebp)
	movl	%edx, -124(%ebp)
	movl	-120(%ebp), %ecx
Ltmp183:
	.loc	17 31 71 is_stmt 0      ## /Applications/Xcode.app/Contents/Developer/Toolchains/XcodeDefault.xctoolchain/usr/include/c++/v1/__nullptr:31:71
	movl	$0, (%ecx)
Ltmp184:
	.loc	17 47 77 is_stmt 1      ## /Applications/Xcode.app/Contents/Developer/Toolchains/XcodeDefault.xctoolchain/usr/include/c++/v1/__nullptr:47:77
	movl	-136(%ebp), %ecx
Ltmp185:
	.loc	61 1398 27              ## /Applications/Xcode.app/Contents/Developer/Toolchains/XcodeDefault.xctoolchain/usr/include/c++/v1/locale:1398:27
	movl	%ecx, -296(%ebp)
	movl	%eax, -16(%ebp)
	.loc	61 1398 25 is_stmt 0    ## /Applications/Xcode.app/Contents/Developer/Toolchains/XcodeDefault.xctoolchain/usr/include/c++/v1/locale:1398:25
	movl	-364(%ebp), %eax        ## 4-byte Reload
	movl	$0, (%eax)
	.loc	61 1399 20 is_stmt 1    ## /Applications/Xcode.app/Contents/Developer/Toolchains/XcodeDefault.xctoolchain/usr/include/c++/v1/locale:1399:20
	movl	(%eax), %ecx
	movl	%ecx, -272(%ebp)
	.loc	61 1399 13 is_stmt 0    ## /Applications/Xcode.app/Contents/Developer/Toolchains/XcodeDefault.xctoolchain/usr/include/c++/v1/locale:1399:13
	jmp	LBB19_29
Ltmp186:
LBB19_8:
	.loc	61 1401 5 is_stmt 1     ## /Applications/Xcode.app/Contents/Developer/Toolchains/XcodeDefault.xctoolchain/usr/include/c++/v1/locale:1401:5
	jmp	LBB19_9
Ltmp187:
LBB19_9:
	.loc	61 1402 14              ## /Applications/Xcode.app/Contents/Developer/Toolchains/XcodeDefault.xctoolchain/usr/include/c++/v1/locale:1402:14
	cmpl	$0, -288(%ebp)
Ltmp188:
	.loc	61 1402 9 is_stmt 0     ## /Applications/Xcode.app/Contents/Developer/Toolchains/XcodeDefault.xctoolchain/usr/include/c++/v1/locale:1402:9
	jle	LBB19_24
## BB#10:
	.loc	61 0 9                  ## /Applications/Xcode.app/Contents/Developer/Toolchains/XcodeDefault.xctoolchain/usr/include/c++/v1/locale:0:9
	xorl	%eax, %eax
	movl	$12, %ecx
	leal	-312(%ebp), %edx
Ltmp189:
	##DEBUG_VALUE: __sp <- [%EDX+0]
	.loc	61 1404 44 is_stmt 1    ## /Applications/Xcode.app/Contents/Developer/Toolchains/XcodeDefault.xctoolchain/usr/include/c++/v1/locale:1404:44
	movl	-288(%ebp), %esi
	.loc	61 1404 50 is_stmt 0    ## /Applications/Xcode.app/Contents/Developer/Toolchains/XcodeDefault.xctoolchain/usr/include/c++/v1/locale:1404:50
	movb	28(%ebp), %bl
	movl	%edx, -52(%ebp)
	movl	%esi, -56(%ebp)
	movb	%bl, -57(%ebp)
	movl	-52(%ebp), %edx
Ltmp190:
	.loc	6 1707 1 is_stmt 1      ## /Applications/Xcode.app/Contents/Developer/Toolchains/XcodeDefault.xctoolchain/usr/include/c++/v1/string:1707:1
	movl	-56(%ebp), %esi
	movb	-57(%ebp), %bl
	movl	%edx, -40(%ebp)
	movl	%esi, -44(%ebp)
	movb	%bl, -45(%ebp)
	movl	-40(%ebp), %edx
	movl	%edx, -36(%ebp)
	movl	-36(%ebp), %esi
	movl	%esi, -32(%ebp)
	movl	-32(%ebp), %esi
Ltmp191:
	.loc	7 2164 23               ## /Applications/Xcode.app/Contents/Developer/Toolchains/XcodeDefault.xctoolchain/usr/include/c++/v1/memory:2164:23
	movl	%esi, %edi
	movl	%edi, -28(%ebp)
	movl	-28(%ebp), %edi
Ltmp192:
	.loc	7 2059 56               ## /Applications/Xcode.app/Contents/Developer/Toolchains/XcodeDefault.xctoolchain/usr/include/c++/v1/memory:2059:56
	movl	%edi, (%esp)
	movl	$0, 4(%esp)
	movl	$12, 8(%esp)
	movl	%eax, -384(%ebp)        ## 4-byte Spill
	movl	%ecx, -388(%ebp)        ## 4-byte Spill
	movl	%edx, -392(%ebp)        ## 4-byte Spill
	movl	%esi, -396(%ebp)        ## 4-byte Spill
	calll	_memset
Ltmp193:
	.loc	7 2164 23               ## /Applications/Xcode.app/Contents/Developer/Toolchains/XcodeDefault.xctoolchain/usr/include/c++/v1/memory:2164:23
	movl	-396(%ebp), %eax        ## 4-byte Reload
	movl	%eax, -24(%ebp)
	movl	-24(%ebp), %eax
	movl	%eax, -20(%ebp)
Ltmp194:
	.loc	6 1708 12               ## /Applications/Xcode.app/Contents/Developer/Toolchains/XcodeDefault.xctoolchain/usr/include/c++/v1/string:1708:12
	movl	-44(%ebp), %eax
	.loc	6 1708 5 is_stmt 0      ## /Applications/Xcode.app/Contents/Developer/Toolchains/XcodeDefault.xctoolchain/usr/include/c++/v1/string:1708:5
	movl	-392(%ebp), %ecx        ## 4-byte Reload
	movl	%ecx, (%esp)
	movl	%eax, 4(%esp)
	movsbl	-45(%ebp), %eax
	movl	%eax, 8(%esp)
	calll	__ZNSt3__112basic_stringIcNS_11char_traitsIcEENS_9allocatorIcEEE6__initEmc
	leal	-312(%ebp), %eax
Ltmp195:
	.loc	61 1405 17 is_stmt 1    ## /Applications/Xcode.app/Contents/Developer/Toolchains/XcodeDefault.xctoolchain/usr/include/c++/v1/locale:1405:17
	movl	-364(%ebp), %ecx        ## 4-byte Reload
	movl	(%ecx), %edx
	movl	%eax, -116(%ebp)
	movl	-116(%ebp), %eax
	movl	%eax, -112(%ebp)
	movl	-112(%ebp), %eax
	movl	%eax, -108(%ebp)
	movl	-108(%ebp), %esi
	movl	%esi, -104(%ebp)
	movl	-104(%ebp), %esi
	movl	%esi, -100(%ebp)
	movl	-100(%ebp), %esi
Ltmp196:
	.loc	6 1221 22               ## /Applications/Xcode.app/Contents/Developer/Toolchains/XcodeDefault.xctoolchain/usr/include/c++/v1/string:1221:22
	movzbl	(%esi), %esi
	.loc	6 1221 47 is_stmt 0     ## /Applications/Xcode.app/Contents/Developer/Toolchains/XcodeDefault.xctoolchain/usr/include/c++/v1/string:1221:47
	andl	$1, %esi
	.loc	6 1221 22               ## /Applications/Xcode.app/Contents/Developer/Toolchains/XcodeDefault.xctoolchain/usr/include/c++/v1/string:1221:22
	cmpl	$0, %esi
Ltmp197:
	.loc	6 1315 17 is_stmt 1     ## /Applications/Xcode.app/Contents/Developer/Toolchains/XcodeDefault.xctoolchain/usr/include/c++/v1/string:1315:17
	movl	%edx, -400(%ebp)        ## 4-byte Spill
	movl	%eax, -404(%ebp)        ## 4-byte Spill
	je	LBB19_12
## BB#11:
	.loc	6 0 17 is_stmt 0        ## /Applications/Xcode.app/Contents/Developer/Toolchains/XcodeDefault.xctoolchain/usr/include/c++/v1/string:0:17
	movl	-404(%ebp), %eax        ## 4-byte Reload
	movl	%eax, -76(%ebp)
	movl	-76(%ebp), %ecx
	movl	%ecx, -72(%ebp)
	movl	-72(%ebp), %ecx
	movl	%ecx, -68(%ebp)
	movl	-68(%ebp), %ecx
Ltmp198:
	.loc	6 1303 34 is_stmt 1     ## /Applications/Xcode.app/Contents/Developer/Toolchains/XcodeDefault.xctoolchain/usr/include/c++/v1/string:1303:34
	movl	8(%ecx), %ecx
Ltmp199:
	.loc	6 1315 17               ## /Applications/Xcode.app/Contents/Developer/Toolchains/XcodeDefault.xctoolchain/usr/include/c++/v1/string:1315:17
	movl	%ecx, -408(%ebp)        ## 4-byte Spill
	jmp	LBB19_13
LBB19_12:
	.loc	6 0 17 is_stmt 0        ## /Applications/Xcode.app/Contents/Developer/Toolchains/XcodeDefault.xctoolchain/usr/include/c++/v1/string:0:17
	movl	-404(%ebp), %eax        ## 4-byte Reload
	movl	%eax, -96(%ebp)
	movl	-96(%ebp), %ecx
	movl	%ecx, -92(%ebp)
	movl	-92(%ebp), %ecx
	movl	%ecx, -88(%ebp)
	movl	-88(%ebp), %ecx
Ltmp200:
	.loc	6 1309 76 is_stmt 1     ## /Applications/Xcode.app/Contents/Developer/Toolchains/XcodeDefault.xctoolchain/usr/include/c++/v1/string:1309:76
	addl	$1, %ecx
	movl	%ecx, -84(%ebp)
Ltmp201:
	.loc	7 979 34                ## /Applications/Xcode.app/Contents/Developer/Toolchains/XcodeDefault.xctoolchain/usr/include/c++/v1/memory:979:34
	movl	-84(%ebp), %ecx
	movl	%ecx, -80(%ebp)
Ltmp202:
	.loc	8 439 32                ## /Applications/Xcode.app/Contents/Developer/Toolchains/XcodeDefault.xctoolchain/usr/include/c++/v1/type_traits:439:32
	movl	-80(%ebp), %ecx
	movl	%ecx, -408(%ebp)        ## 4-byte Spill
Ltmp203:
LBB19_13:
	.loc	6 1315 17               ## /Applications/Xcode.app/Contents/Developer/Toolchains/XcodeDefault.xctoolchain/usr/include/c++/v1/string:1315:17
	movl	-408(%ebp), %eax        ## 4-byte Reload
	movl	%eax, -64(%ebp)
Ltmp204:
	.loc	7 1097 12               ## /Applications/Xcode.app/Contents/Developer/Toolchains/XcodeDefault.xctoolchain/usr/include/c++/v1/memory:1097:12
	movl	-64(%ebp), %eax
Ltmp205:
	.loc	61 1405 45              ## /Applications/Xcode.app/Contents/Developer/Toolchains/XcodeDefault.xctoolchain/usr/include/c++/v1/locale:1405:45
	movl	-288(%ebp), %ecx
	movl	-400(%ebp), %edx        ## 4-byte Reload
	movl	%edx, -152(%ebp)
	movl	%eax, -156(%ebp)
	movl	%ecx, -160(%ebp)
	movl	-152(%ebp), %eax
Ltmp206:
	.loc	15 227 14               ## /Applications/Xcode.app/Contents/Developer/Toolchains/XcodeDefault.xctoolchain/usr/include/c++/v1/streambuf:227:14
	movl	(%eax), %ecx
	movl	48(%ecx), %ecx
	.loc	15 227 21 is_stmt 0     ## /Applications/Xcode.app/Contents/Developer/Toolchains/XcodeDefault.xctoolchain/usr/include/c++/v1/streambuf:227:21
	movl	-156(%ebp), %esi
	.loc	15 227 26               ## /Applications/Xcode.app/Contents/Developer/Toolchains/XcodeDefault.xctoolchain/usr/include/c++/v1/streambuf:227:26
	movl	-160(%ebp), %edi
Ltmp156:
	.loc	15 227 14               ## /Applications/Xcode.app/Contents/Developer/Toolchains/XcodeDefault.xctoolchain/usr/include/c++/v1/streambuf:227:14
	movl	%esp, %ebx
	movl	%edi, 8(%ebx)
	movl	%esi, 4(%ebx)
	movl	%eax, (%ebx)
	calll	*%ecx
Ltmp157:
	movl	%eax, -412(%ebp)        ## 4-byte Spill
	jmp	LBB19_14
LBB19_14:
	.loc	15 227 7                ## /Applications/Xcode.app/Contents/Developer/Toolchains/XcodeDefault.xctoolchain/usr/include/c++/v1/streambuf:227:7
	jmp	LBB19_15
Ltmp207:
LBB19_15:
	.loc	61 1405 51 is_stmt 1    ## /Applications/Xcode.app/Contents/Developer/Toolchains/XcodeDefault.xctoolchain/usr/include/c++/v1/locale:1405:51
	movl	-412(%ebp), %eax        ## 4-byte Reload
	cmpl	-288(%ebp), %eax
Ltmp208:
	.loc	61 1405 13 is_stmt 0    ## /Applications/Xcode.app/Contents/Developer/Toolchains/XcodeDefault.xctoolchain/usr/include/c++/v1/locale:1405:13
	je	LBB19_20
## BB#16:
	.loc	61 0 13                 ## /Applications/Xcode.app/Contents/Developer/Toolchains/XcodeDefault.xctoolchain/usr/include/c++/v1/locale:0:13
	leal	-184(%ebp), %eax
	movl	%eax, -172(%ebp)
	movl	$-1, -176(%ebp)
	movl	-172(%ebp), %eax
Ltmp209:
	.loc	17 31 79 is_stmt 1      ## /Applications/Xcode.app/Contents/Developer/Toolchains/XcodeDefault.xctoolchain/usr/include/c++/v1/__nullptr:31:79
	movl	-176(%ebp), %ecx
	movl	%eax, -164(%ebp)
	movl	%ecx, -168(%ebp)
	movl	-164(%ebp), %eax
Ltmp210:
	.loc	17 31 71 is_stmt 0      ## /Applications/Xcode.app/Contents/Developer/Toolchains/XcodeDefault.xctoolchain/usr/include/c++/v1/__nullptr:31:71
	movl	$0, (%eax)
Ltmp211:
	.loc	17 47 77 is_stmt 1      ## /Applications/Xcode.app/Contents/Developer/Toolchains/XcodeDefault.xctoolchain/usr/include/c++/v1/__nullptr:47:77
	movl	-184(%ebp), %eax
	movl	%eax, -416(%ebp)        ## 4-byte Spill
Ltmp212:
## BB#17:
	.loc	17 0 77 is_stmt 0       ## /Applications/Xcode.app/Contents/Developer/Toolchains/XcodeDefault.xctoolchain/usr/include/c++/v1/__nullptr:0:77
	leal	-328(%ebp), %eax
	.loc	61 1407 27 is_stmt 1    ## /Applications/Xcode.app/Contents/Developer/Toolchains/XcodeDefault.xctoolchain/usr/include/c++/v1/locale:1407:27
	movl	-416(%ebp), %ecx        ## 4-byte Reload
	movl	%ecx, -328(%ebp)
	movl	%eax, -188(%ebp)
## BB#18:
	.loc	61 1407 25 is_stmt 0    ## /Applications/Xcode.app/Contents/Developer/Toolchains/XcodeDefault.xctoolchain/usr/include/c++/v1/locale:1407:25
	movl	-364(%ebp), %eax        ## 4-byte Reload
	movl	$0, (%eax)
	.loc	61 1408 20 is_stmt 1    ## /Applications/Xcode.app/Contents/Developer/Toolchains/XcodeDefault.xctoolchain/usr/include/c++/v1/locale:1408:20
	movl	(%eax), %ecx
	movl	%ecx, -272(%ebp)
	movl	$1, -332(%ebp)
	.loc	61 1408 13 is_stmt 0    ## /Applications/Xcode.app/Contents/Developer/Toolchains/XcodeDefault.xctoolchain/usr/include/c++/v1/locale:1408:13
	jmp	LBB19_21
Ltmp213:
LBB19_19:
Ltmp158:
	.loc	61 1422 1 is_stmt 1     ## /Applications/Xcode.app/Contents/Developer/Toolchains/XcodeDefault.xctoolchain/usr/include/c++/v1/locale:1422:1
	movl	%eax, -316(%ebp)
	movl	%edx, -320(%ebp)
Ltmp214:
Ltmp159:
	.loc	61 1410 5               ## /Applications/Xcode.app/Contents/Developer/Toolchains/XcodeDefault.xctoolchain/usr/include/c++/v1/locale:1410:5
	movl	%esp, %eax
	leal	-312(%ebp), %edx
	movl	%edx, (%eax)
	calll	__ZNSt3__112basic_stringIcNS_11char_traitsIcEENS_9allocatorIcEEED1Ev
Ltmp160:
	jmp	LBB19_23
LBB19_20:
	movl	$0, -332(%ebp)
LBB19_21:
	movl	%esp, %eax
	leal	-312(%ebp), %ecx
	movl	%ecx, (%eax)
	calll	__ZNSt3__112basic_stringIcNS_11char_traitsIcEENS_9allocatorIcEEED1Ev
	movl	-332(%ebp), %eax
	testl	%eax, %eax
	movl	%eax, -420(%ebp)        ## 4-byte Spill
	je	LBB19_22
	jmp	LBB19_33
LBB19_33:
	.loc	61 0 5 is_stmt 0        ## /Applications/Xcode.app/Contents/Developer/Toolchains/XcodeDefault.xctoolchain/usr/include/c++/v1/locale:0:5
	movl	-420(%ebp), %eax        ## 4-byte Reload
	subl	$1, %eax
	movl	%eax, -424(%ebp)        ## 4-byte Spill
	je	LBB19_29
	jmp	LBB19_32
LBB19_22:
Ltmp215:
	.loc	61 1410 5               ## /Applications/Xcode.app/Contents/Developer/Toolchains/XcodeDefault.xctoolchain/usr/include/c++/v1/locale:1410:5
	jmp	LBB19_24
Ltmp216:
LBB19_23:
	.loc	61 1410 5               ## /Applications/Xcode.app/Contents/Developer/Toolchains/XcodeDefault.xctoolchain/usr/include/c++/v1/locale:1410:5
	jmp	LBB19_30
Ltmp217:
LBB19_24:
	.loc	61 1411 12 is_stmt 1    ## /Applications/Xcode.app/Contents/Developer/Toolchains/XcodeDefault.xctoolchain/usr/include/c++/v1/locale:1411:12
	movl	20(%ebp), %eax
	.loc	61 1411 19 is_stmt 0    ## /Applications/Xcode.app/Contents/Developer/Toolchains/XcodeDefault.xctoolchain/usr/include/c++/v1/locale:1411:19
	movl	16(%ebp), %ecx
	.loc	61 1411 17              ## /Applications/Xcode.app/Contents/Developer/Toolchains/XcodeDefault.xctoolchain/usr/include/c++/v1/locale:1411:17
	subl	%ecx, %eax
	.loc	61 1411 10              ## /Applications/Xcode.app/Contents/Developer/Toolchains/XcodeDefault.xctoolchain/usr/include/c++/v1/locale:1411:10
	movl	%eax, -292(%ebp)
Ltmp218:
	.loc	61 1412 14 is_stmt 1    ## /Applications/Xcode.app/Contents/Developer/Toolchains/XcodeDefault.xctoolchain/usr/include/c++/v1/locale:1412:14
	cmpl	$0, -292(%ebp)
Ltmp219:
	.loc	61 1412 9 is_stmt 0     ## /Applications/Xcode.app/Contents/Developer/Toolchains/XcodeDefault.xctoolchain/usr/include/c++/v1/locale:1412:9
	jle	LBB19_28
## BB#25:
Ltmp220:
	.loc	61 1414 17 is_stmt 1    ## /Applications/Xcode.app/Contents/Developer/Toolchains/XcodeDefault.xctoolchain/usr/include/c++/v1/locale:1414:17
	movl	-364(%ebp), %eax        ## 4-byte Reload
	movl	(%eax), %ecx
	.loc	61 1414 32 is_stmt 0    ## /Applications/Xcode.app/Contents/Developer/Toolchains/XcodeDefault.xctoolchain/usr/include/c++/v1/locale:1414:32
	movl	16(%ebp), %edx
	.loc	61 1414 38              ## /Applications/Xcode.app/Contents/Developer/Toolchains/XcodeDefault.xctoolchain/usr/include/c++/v1/locale:1414:38
	movl	-292(%ebp), %esi
	movl	%ecx, -196(%ebp)
	movl	%edx, -200(%ebp)
	movl	%esi, -204(%ebp)
	movl	-196(%ebp), %ecx
Ltmp221:
	.loc	15 227 14 is_stmt 1     ## /Applications/Xcode.app/Contents/Developer/Toolchains/XcodeDefault.xctoolchain/usr/include/c++/v1/streambuf:227:14
	movl	(%ecx), %edx
	movl	48(%edx), %edx
	.loc	15 227 21 is_stmt 0     ## /Applications/Xcode.app/Contents/Developer/Toolchains/XcodeDefault.xctoolchain/usr/include/c++/v1/streambuf:227:21
	movl	-200(%ebp), %esi
	.loc	15 227 26               ## /Applications/Xcode.app/Contents/Developer/Toolchains/XcodeDefault.xctoolchain/usr/include/c++/v1/streambuf:227:26
	movl	-204(%ebp), %edi
	.loc	15 227 14               ## /Applications/Xcode.app/Contents/Developer/Toolchains/XcodeDefault.xctoolchain/usr/include/c++/v1/streambuf:227:14
	movl	%ecx, (%esp)
	movl	%esi, 4(%esp)
	movl	%edi, 8(%esp)
	calll	*%edx
Ltmp222:
	.loc	61 1414 44 is_stmt 1    ## /Applications/Xcode.app/Contents/Developer/Toolchains/XcodeDefault.xctoolchain/usr/include/c++/v1/locale:1414:44
	cmpl	-292(%ebp), %eax
Ltmp223:
	.loc	61 1414 13 is_stmt 0    ## /Applications/Xcode.app/Contents/Developer/Toolchains/XcodeDefault.xctoolchain/usr/include/c++/v1/locale:1414:13
	je	LBB19_27
## BB#26:
	.loc	61 0 13                 ## /Applications/Xcode.app/Contents/Developer/Toolchains/XcodeDefault.xctoolchain/usr/include/c++/v1/locale:0:13
	leal	-336(%ebp), %eax
	leal	-224(%ebp), %ecx
	movl	%ecx, -216(%ebp)
	movl	$-1, -220(%ebp)
	movl	-216(%ebp), %ecx
Ltmp224:
	.loc	17 31 79 is_stmt 1      ## /Applications/Xcode.app/Contents/Developer/Toolchains/XcodeDefault.xctoolchain/usr/include/c++/v1/__nullptr:31:79
	movl	-220(%ebp), %edx
	movl	%ecx, -208(%ebp)
	movl	%edx, -212(%ebp)
	movl	-208(%ebp), %ecx
Ltmp225:
	.loc	17 31 71 is_stmt 0      ## /Applications/Xcode.app/Contents/Developer/Toolchains/XcodeDefault.xctoolchain/usr/include/c++/v1/__nullptr:31:71
	movl	$0, (%ecx)
Ltmp226:
	.loc	17 47 77 is_stmt 1      ## /Applications/Xcode.app/Contents/Developer/Toolchains/XcodeDefault.xctoolchain/usr/include/c++/v1/__nullptr:47:77
	movl	-224(%ebp), %ecx
Ltmp227:
	.loc	61 1416 27              ## /Applications/Xcode.app/Contents/Developer/Toolchains/XcodeDefault.xctoolchain/usr/include/c++/v1/locale:1416:27
	movl	%ecx, -336(%ebp)
	movl	%eax, -228(%ebp)
	.loc	61 1416 25 is_stmt 0    ## /Applications/Xcode.app/Contents/Developer/Toolchains/XcodeDefault.xctoolchain/usr/include/c++/v1/locale:1416:25
	movl	-364(%ebp), %eax        ## 4-byte Reload
	movl	$0, (%eax)
	.loc	61 1417 20 is_stmt 1    ## /Applications/Xcode.app/Contents/Developer/Toolchains/XcodeDefault.xctoolchain/usr/include/c++/v1/locale:1417:20
	movl	(%eax), %ecx
	movl	%ecx, -272(%ebp)
	.loc	61 1417 13 is_stmt 0    ## /Applications/Xcode.app/Contents/Developer/Toolchains/XcodeDefault.xctoolchain/usr/include/c++/v1/locale:1417:13
	jmp	LBB19_29
Ltmp228:
LBB19_27:
	.loc	61 1419 5 is_stmt 1     ## /Applications/Xcode.app/Contents/Developer/Toolchains/XcodeDefault.xctoolchain/usr/include/c++/v1/locale:1419:5
	jmp	LBB19_28
Ltmp229:
LBB19_28:
	.loc	61 1420 5               ## /Applications/Xcode.app/Contents/Developer/Toolchains/XcodeDefault.xctoolchain/usr/include/c++/v1/locale:1420:5
	movl	24(%ebp), %eax
	movl	%eax, -232(%ebp)
	movl	$0, -236(%ebp)
	movl	-232(%ebp), %eax
Ltmp230:
	.loc	1 511 22                ## /Applications/Xcode.app/Contents/Developer/Toolchains/XcodeDefault.xctoolchain/usr/include/c++/v1/ios:511:22
	movl	12(%eax), %ecx
	.loc	1 511 16 is_stmt 0      ## /Applications/Xcode.app/Contents/Developer/Toolchains/XcodeDefault.xctoolchain/usr/include/c++/v1/ios:511:16
	movl	%ecx, -240(%ebp)
	.loc	1 512 16 is_stmt 1      ## /Applications/Xcode.app/Contents/Developer/Toolchains/XcodeDefault.xctoolchain/usr/include/c++/v1/ios:512:16
	movl	-236(%ebp), %ecx
	.loc	1 512 14 is_stmt 0      ## /Applications/Xcode.app/Contents/Developer/Toolchains/XcodeDefault.xctoolchain/usr/include/c++/v1/ios:512:14
	movl	%ecx, 12(%eax)
Ltmp231:
	.loc	61 1421 12 is_stmt 1    ## /Applications/Xcode.app/Contents/Developer/Toolchains/XcodeDefault.xctoolchain/usr/include/c++/v1/locale:1421:12
	movl	-364(%ebp), %eax        ## 4-byte Reload
	movl	(%eax), %ecx
	movl	%ecx, -272(%ebp)
LBB19_29:
	.loc	61 1422 1               ## /Applications/Xcode.app/Contents/Developer/Toolchains/XcodeDefault.xctoolchain/usr/include/c++/v1/locale:1422:1
	movl	-272(%ebp), %eax
	addl	$428, %esp              ## imm = 0x1AC
	popl	%esi
	popl	%edi
	popl	%ebx
	popl	%ebp
	retl
LBB19_30:
Ltmp232:
	.loc	61 1410 5               ## /Applications/Xcode.app/Contents/Developer/Toolchains/XcodeDefault.xctoolchain/usr/include/c++/v1/locale:1410:5
	movl	-316(%ebp), %eax
	movl	%eax, (%esp)
	calll	__Unwind_Resume
LBB19_31:
Ltmp161:
	movl	%eax, (%esp)
	movl	%edx, -428(%ebp)        ## 4-byte Spill
	calll	___clang_call_terminate
Ltmp233:
LBB19_32:
Lfunc_end19:
	.cfi_endproc
	.section	__TEXT,__gcc_except_tab
	.p2align	2
GCC_except_table19:
Lexception5:
	.byte	255                     ## @LPStart Encoding = omit
	.byte	155                     ## @TType Encoding = indirect pcrel sdata4
	.asciz	"\274"                  ## @TType base offset
	.byte	3                       ## Call site Encoding = udata4
	.byte	52                      ## Call site table length
Lset63 = Lfunc_begin19-Lfunc_begin19    ## >> Call Site 1 <<
	.long	Lset63
Lset64 = Ltmp156-Lfunc_begin19          ##   Call between Lfunc_begin19 and Ltmp156
	.long	Lset64
	.long	0                       ##     has no landing pad
	.byte	0                       ##   On action: cleanup
Lset65 = Ltmp156-Lfunc_begin19          ## >> Call Site 2 <<
	.long	Lset65
Lset66 = Ltmp157-Ltmp156                ##   Call between Ltmp156 and Ltmp157
	.long	Lset66
Lset67 = Ltmp158-Lfunc_begin19          ##     jumps to Ltmp158
	.long	Lset67
	.byte	0                       ##   On action: cleanup
Lset68 = Ltmp159-Lfunc_begin19          ## >> Call Site 3 <<
	.long	Lset68
Lset69 = Ltmp160-Ltmp159                ##   Call between Ltmp159 and Ltmp160
	.long	Lset69
Lset70 = Ltmp161-Lfunc_begin19          ##     jumps to Ltmp161
	.long	Lset70
	.byte	1                       ##   On action: 1
Lset71 = Ltmp160-Lfunc_begin19          ## >> Call Site 4 <<
	.long	Lset71
Lset72 = Lfunc_end19-Ltmp160            ##   Call between Ltmp160 and Lfunc_end19
	.long	Lset72
	.long	0                       ##     has no landing pad
	.byte	0                       ##   On action: cleanup
	.byte	1                       ## >> Action Record 1 <<
                                        ##   Catch TypeInfo 1
	.byte	0                       ##   No further actions
                                        ## >> Catch TypeInfos <<
	.long	0                       ## TypeInfo 1
	.p2align	2
                                        ## -- End function
	.section	__TEXT,__text,regular,pure_instructions
	.globl	__ZNSt3__111char_traitsIcE11eq_int_typeEii ## -- Begin function _ZNSt3__111char_traitsIcE11eq_int_typeEii
	.weak_definition	__ZNSt3__111char_traitsIcE11eq_int_typeEii
	.p2align	4, 0x90
__ZNSt3__111char_traitsIcE11eq_int_typeEii: ## @_ZNSt3__111char_traitsIcE11eq_int_typeEii
Lfunc_begin20:
	.loc	10 237 0                ## /Applications/Xcode.app/Contents/Developer/Toolchains/XcodeDefault.xctoolchain/usr/include/c++/v1/__string:237:0
	.cfi_startproc
## BB#0:
	pushl	%ebp
Lcfi80:
	.cfi_def_cfa_offset 8
Lcfi81:
	.cfi_offset %ebp, -8
	movl	%esp, %ebp
Lcfi82:
	.cfi_def_cfa_register %ebp
	pushl	%ebx
	subl	$8, %esp
Lcfi83:
	.cfi_offset %ebx, -12
	movl	12(%ebp), %eax
	movl	8(%ebp), %ecx
Ltmp234:
	.loc	10 237 17 prologue_end  ## /Applications/Xcode.app/Contents/Developer/Toolchains/XcodeDefault.xctoolchain/usr/include/c++/v1/__string:237:17
	movl	8(%ebp), %edx
	.loc	10 237 22 is_stmt 0     ## /Applications/Xcode.app/Contents/Developer/Toolchains/XcodeDefault.xctoolchain/usr/include/c++/v1/__string:237:22
	cmpl	12(%ebp), %edx
	sete	%bl
	.loc	10 237 10               ## /Applications/Xcode.app/Contents/Developer/Toolchains/XcodeDefault.xctoolchain/usr/include/c++/v1/__string:237:10
	andb	$1, %bl
	movzbl	%bl, %edx
	movl	%eax, -8(%ebp)          ## 4-byte Spill
	movl	%edx, %eax
	movl	%ecx, -12(%ebp)         ## 4-byte Spill
	addl	$8, %esp
	popl	%ebx
	popl	%ebp
	retl
Ltmp235:
Lfunc_end20:
	.cfi_endproc
                                        ## -- End function
	.globl	__ZNSt3__111char_traitsIcE3eofEv ## -- Begin function _ZNSt3__111char_traitsIcE3eofEv
	.weak_definition	__ZNSt3__111char_traitsIcE3eofEv
	.p2align	4, 0x90
__ZNSt3__111char_traitsIcE3eofEv:       ## @_ZNSt3__111char_traitsIcE3eofEv
Lfunc_begin21:
	.loc	10 239 0 is_stmt 1      ## /Applications/Xcode.app/Contents/Developer/Toolchains/XcodeDefault.xctoolchain/usr/include/c++/v1/__string:239:0
	.cfi_startproc
## BB#0:
	pushl	%ebp
Lcfi84:
	.cfi_def_cfa_offset 8
Lcfi85:
	.cfi_offset %ebp, -8
	movl	%esp, %ebp
Lcfi86:
	.cfi_def_cfa_register %ebp
	movl	$4294967295, %eax       ## imm = 0xFFFFFFFF
Ltmp236:
	.loc	10 239 10 prologue_end  ## /Applications/Xcode.app/Contents/Developer/Toolchains/XcodeDefault.xctoolchain/usr/include/c++/v1/__string:239:10
	popl	%ebp
	retl
Ltmp237:
Lfunc_end21:
	.cfi_endproc
                                        ## -- End function
	.globl	__ZN4Base16setPrivateAttribEi ## -- Begin function _ZN4Base16setPrivateAttribEi
	.weak_definition	__ZN4Base16setPrivateAttribEi
	.p2align	4, 0x90
__ZN4Base16setPrivateAttribEi:          ## @_ZN4Base16setPrivateAttribEi
Lfunc_begin22:
	.loc	60 10 0                 ## main.cpp:10:0
	.cfi_startproc
## BB#0:
	pushl	%ebp
Lcfi87:
	.cfi_def_cfa_offset 8
Lcfi88:
	.cfi_offset %ebp, -8
	movl	%esp, %ebp
Lcfi89:
	.cfi_def_cfa_register %ebp
	pushl	%esi
	subl	$8, %esp
Lcfi90:
	.cfi_offset %esi, -12
	movl	12(%ebp), %eax
	movl	8(%ebp), %ecx
	movl	8(%ebp), %edx
Ltmp238:
	.loc	60 10 60 prologue_end   ## main.cpp:10:60
	movl	12(%ebp), %esi
	.loc	60 10 58 is_stmt 0      ## main.cpp:10:58
	movl	%esi, 4(%edx)
	.loc	60 10 62                ## main.cpp:10:62
	movl	%eax, -8(%ebp)          ## 4-byte Spill
	movl	%ecx, -12(%ebp)         ## 4-byte Spill
	addl	$8, %esp
	popl	%esi
	popl	%ebp
	retl
Ltmp239:
Lfunc_end22:
	.cfi_endproc
                                        ## -- End function
	.globl	__ZN4Base16getPrivateAttribEv ## -- Begin function _ZN4Base16getPrivateAttribEv
	.weak_definition	__ZN4Base16getPrivateAttribEv
	.p2align	4, 0x90
__ZN4Base16getPrivateAttribEv:          ## @_ZN4Base16getPrivateAttribEv
Lfunc_begin23:
	.loc	60 9 0 is_stmt 1        ## main.cpp:9:0
	.cfi_startproc
## BB#0:
	pushl	%ebp
Lcfi91:
	.cfi_def_cfa_offset 8
Lcfi92:
	.cfi_offset %ebp, -8
	movl	%esp, %ebp
Lcfi93:
	.cfi_def_cfa_register %ebp
	pushl	%eax
	movl	8(%ebp), %eax
	movl	8(%ebp), %ecx
Ltmp240:
	.loc	60 9 40 prologue_end    ## main.cpp:9:40
	movl	4(%ecx), %ecx
	.loc	60 9 33 is_stmt 0       ## main.cpp:9:33
	movl	%eax, -4(%ebp)          ## 4-byte Spill
	movl	%ecx, %eax
	addl	$4, %esp
	popl	%ebp
	retl
Ltmp241:
Lfunc_end23:
	.cfi_endproc
                                        ## -- End function
	.globl	__ZN7DerivedD2Ev        ## -- Begin function _ZN7DerivedD2Ev
	.weak_def_can_be_hidden	__ZN7DerivedD2Ev
	.p2align	4, 0x90
__ZN7DerivedD2Ev:                       ## @_ZN7DerivedD2Ev
Lfunc_begin24:
	.loc	60 20 0 is_stmt 1       ## main.cpp:20:0
	.cfi_startproc
## BB#0:
	pushl	%ebp
Lcfi94:
	.cfi_def_cfa_offset 8
Lcfi95:
	.cfi_offset %ebp, -8
	movl	%esp, %ebp
Lcfi96:
	.cfi_def_cfa_register %ebp
	subl	$8, %esp
	movl	8(%ebp), %eax
	movl	8(%ebp), %ecx
Ltmp242:
	.loc	60 20 7 prologue_end    ## main.cpp:20:7
	movl	%ecx, (%esp)
	movl	%eax, -4(%ebp)          ## 4-byte Spill
	calll	__ZN4BaseD2Ev
Ltmp243:
	.loc	60 20 7 is_stmt 0       ## main.cpp:20:7
	addl	$8, %esp
	popl	%ebp
	retl
Ltmp244:
Lfunc_end24:
	.cfi_endproc
                                        ## -- End function
	.section	__DATA,__data
	.globl	__ZTV7Derived           ## @_ZTV7Derived
	.weak_def_can_be_hidden	__ZTV7Derived
	.p2align	2
__ZTV7Derived:
	.long	0
	.long	__ZTI7Derived
	.long	__ZN7DerivedD1Ev
	.long	__ZN7DerivedD0Ev
	.long	__ZN7Derived8do_stuffEv
	.long	__ZN7Derived14do_other_stuffEv

	.section	__TEXT,__const
	.globl	__ZTS7Derived           ## @_ZTS7Derived
	.weak_definition	__ZTS7Derived
__ZTS7Derived:
	.asciz	"7Derived"

	.globl	__ZTS4Base              ## @_ZTS4Base
	.weak_definition	__ZTS4Base
__ZTS4Base:
	.asciz	"4Base"

	.section	__DATA,__data
	.globl	__ZTI4Base              ## @_ZTI4Base
	.weak_definition	__ZTI4Base
	.p2align	3
__ZTI4Base:
	.long	__ZTVN10__cxxabiv117__class_type_infoE+8
	.long	__ZTS4Base

	.globl	__ZTI7Derived           ## @_ZTI7Derived
	.weak_definition	__ZTI7Derived
	.p2align	3
__ZTI7Derived:
	.long	__ZTVN10__cxxabiv120__si_class_type_infoE+8
	.long	__ZTS7Derived
	.long	__ZTI4Base

	.globl	__ZTV4Base              ## @_ZTV4Base
	.weak_def_can_be_hidden	__ZTV4Base
	.p2align	2
__ZTV4Base:
	.long	0
	.long	__ZTI4Base
	.long	__ZN4BaseD1Ev
	.long	__ZN4BaseD0Ev
	.long	__ZN4Base8do_stuffEv
	.long	__ZN4Base14do_other_stuffEv

	.section	__TEXT,__cstring,cstring_literals
L_.str:                                 ## @.str
	.asciz	"Destructor of BASE"

L_.str.1:                               ## @.str.1
	.asciz	"Doig stuff base"

L_.str.2:                               ## @.str.2
	.asciz	"Doig other stuff base"

L_.str.3:                               ## @.str.3
	.asciz	"Doig other stuff derived"

L_.str.4:                               ## @.str.4
	.asciz	"private attrib in base is "

L_.str.5:                               ## @.str.5
	.asciz	"Doig stuff derived"

	.file	62 "<stdin>"